FILE: .\boot.asm                        (0001) ;  Generated by PSoC Designer 5.4.3191
                                        (0002) ;
                                        (0003) ;@Id: boot.tpl#903 @
                                        (0004) ;=============================================================================
                                        (0005) ;  FILENAME:   boot.asm
                                        (0006) ;  Version:    4.30
                                        (0007) ;
                                        (0008) ;  DESCRIPTION:
                                        (0009) ;  M8C Boot Code for CY8C29xxx microcontroller family.
                                        (0010) ;
                                        (0011) ;  Copyright (c) Cypress Semiconductor 2015. All Rights Reserved.
                                        (0012) ;
                                        (0013) ; NOTES:
                                        (0014) ; PSoC Designer's Device Editor uses a template file, BOOT.TPL, located in
                                        (0015) ; the project's root directory to create BOOT.ASM. Any changes made to
                                        (0016) ; BOOT.ASM will be  overwritten every time the project is generated; therefore
                                        (0017) ; changes should be made to BOOT.TPL not BOOT.ASM. Care must be taken when
                                        (0018) ; modifying BOOT.TPL so that replacement strings (such as @PROJECT_NAME)
                                        (0019) ; are not accidentally modified.
                                        (0020) ;
                                        (0021) ;=============================================================================
                                        (0022) 
                                        (0023) include ".\lib\GlobalParams.inc"	;File generated by PSoC Designer (Project dependent)
                                        (0024) include "m8c.inc"			;Part specific file
                                        (0025) include "m8ssc.inc"			;Part specific file
                                        (0026) include "memory.inc"			;File generated by PSoC Designer (Project dependent)
                                        (0027) 
                                        (0028) ;--------------------------------------
                                        (0029) ; Export Declarations
                                        (0030) ;--------------------------------------
                                        (0031) 
                                        (0032) export __Start
                                        (0033) IF	(TOOLCHAIN & HITECH)
                                        (0034) ELSE
                                        (0035) export __bss_start
                                        (0036) export __data_start
                                        (0037) export __idata_start
                                        (0038) export __func_lit_start
                                        (0039) export __text_start
                                        (0040) ENDIF
                                        (0041) export  _bGetPowerSetting
                                        (0042) export   bGetPowerSetting
                                        (0043) 
                                        (0044) 
                                        (0045) ;--------------------------------------
                                        (0046) ; Optimization flags
                                        (0047) ;--------------------------------------
                                        (0048) ;
                                        (0049) ; To change the value of these flags, modify the file boot.tpl, not
                                        (0050) ; boot.asm. See the notes in the banner comment at the beginning of
                                        (0051) ; this file.
                                        (0052) 
                                        (0053) ; Optimization for Assembly language (only) projects and C-language projects
                                        (0054) ; that do not depend on the C compiler to initialize the values of RAM variables.
                                        (0055) ;   Set to 1: Support for C Run-time Environment initialization
                                        (0056) ;   Set to 0: Support for C not included. Faster start up, smaller code space.
                                        (0057) ;
                                        (0058) IF	(TOOLCHAIN & HITECH)
                                        (0059) ; The C compiler will customize the startup code - it's not required here
                                        (0060) 
                                        (0061) C_LANGUAGE_SUPPORT:              equ 0
                                        (0062) ELSE
                                        (0063) C_LANGUAGE_SUPPORT:              equ 1
                                        (0064) ENDIF
                                        (0065) 
                                        (0066) 
                                        (0067) ; The following equate is required for proper operation. Reseting its value
                                        (0068) ; is discouraged.  WAIT_FOR_32K is effective only if the crystal oscillator is
                                        (0069) ; selected.  If the designer chooses to not wait then stabilization of the ECO
                                        (0070) ; and PLL_Lock must take place within user code. See the family data sheet for
                                        (0071) ; the requirements of starting the ECO and PLL lock mode.
                                        (0072) ;
                                        (0073) ;   Set to 1: Wait for XTAL (& PLL if selected) to stabilize before
                                        (0074) ;                invoking main
                                        (0075) ;   Set to 0: Boot code does not wait; clock may not have stabilized by
                                        (0076) ;               the time code in main starts executing.
                                        (0077) ;
                                        (0078) WAIT_FOR_32K:                    equ 1
                                        (0079) 
                                        (0080) 
                                        (0081) ; For historical reasons, by default the boot code uses an lcall instruction
                                        (0082) ; to invoke the user's _main code. If _main executes a return instruction,
                                        (0083) ; boot provides an infinite loop. By changing the following equate from zero
                                        (0084) ; to 1, boot's lcall will be replaced by a ljmp instruction, saving two
                                        (0085) ; bytes on the stack which are otherwise required for the return address. If
                                        (0086) ; this option is enabled, _main must not return. (Beginning with the 4.2
                                        (0087) ; release, the C compiler automatically places an infinite loop at the end
                                        (0088) ; of main, rather than a return instruction.)
                                        (0089) ;
                                        (0090) ENABLE_LJMP_TO_MAIN:             equ 0
                                        (0091) 
                                        (0092) 
                                        (0093) ;-----------------------------------------------------------------------------
                                        (0094) ; Interrupt Vector Table
                                        (0095) ;-----------------------------------------------------------------------------
                                        (0096) ;
                                        (0097) ; Interrupt vector table entries are 4 bytes long.  Each one contains
                                        (0098) ; a jump instruction to an ISR (Interrupt Service Routine), although
                                        (0099) ; very short ISRs could be encoded within the table itself. Normally,
                                        (0100) ; vector jump targets are modified automatically according to the user
                                        (0101) ; modules selected. This occurs when the 'Generate Application' opera-
                                        (0102) ; tion is run causing PSoC Designer to create boot.asm and the other
                                        (0103) ; configuration files. If you need to hard code a vector, update the
                                        (0104) ; file boot.tpl, not boot.asm. See the banner comment at the beginning
                                        (0105) ; of this file.
                                        (0106) ;-----------------------------------------------------------------------------
                                        (0107) 
                                        (0108)     AREA TOP (ROM, ABS, CON)
                                        (0109) 
                                        (0110)     org   0                        ;Reset Interrupt Vector
                                        (0111) IF	(TOOLCHAIN & HITECH)
                                        (0112) ;   jmp   __Start                  ;C compiler fills in this vector
                                        (0113) ELSE
0000: 80 67    JMP   0x0068             (0114)     jmp   __Start                  ;First instruction executed following a Reset
                                        (0115) ENDIF
                                        (0116)     ;@PSoC_BOOT_ISR_UserCode_START@
                                        (0117)     ;---------------------------------------------------
                                        (0118)     ; Insert your custom code below this banner
                                        (0119)     ;---------------------------------------------------
                                        (0120) 
                                        (0121)     org   04h                      ;Low Voltage Detect (LVD) Interrupt Vector
0004: 30       HALT                     (0122)     halt                           ;Stop execution if power falls too low
                                        (0123) 
                                        (0124)     org   08h                      ;Analog Column 0 Interrupt Vector
                                        (0125)     // call	void_handler
0008: 7E       RETI                     (0126)     reti
                                        (0127) 
                                        (0128)     org   0Ch                      ;Analog Column 1 Interrupt Vector
                                        (0129)     // call	void_handler
000C: 7E       RETI                     (0130)     reti
                                        (0131) 
                                        (0132)     org   10h                      ;Analog Column 2 Interrupt Vector
                                        (0133)     // call	void_handler
0010: 7E       RETI                     (0134)     reti
                                        (0135) 
                                        (0136)     org   14h                      ;Analog Column 3 Interrupt Vector
                                        (0137)     // call	void_handler
0014: 7E       RETI                     (0138)     reti
                                        (0139) 
                                        (0140)     org   18h                      ;VC3 Interrupt Vector
                                        (0141)     // call	void_handler
0018: 7E       RETI                     (0142)     reti
                                        (0143) 
                                        (0144)     org   1Ch                      ;GPIO Interrupt Vector
                                        (0145)     // call	void_handler
001C: 7E       RETI                     (0146)     reti
                                        (0147) 
                                        (0148)     org   20h                      ;PSoC Block DBB00 Interrupt Vector
                                        (0149)     // call	void_handler
0020: 7E       RETI                     (0150)     reti
                                        (0151) 
                                        (0152)     org   24h                      ;PSoC Block DBB01 Interrupt Vector
                                        (0153)     // call	void_handler
0024: 7E       RETI                     (0154)     reti
                                        (0155) 
                                        (0156)     org   28h                      ;PSoC Block DCB02 Interrupt Vector
                                        (0157)     // call	void_handler
0028: 7E       RETI                     (0158)     reti
                                        (0159) 
                                        (0160)     org   2Ch                      ;PSoC Block DCB03 Interrupt Vector
                                        (0161)     // call	void_handler
002C: 7E       RETI                     (0162)     reti
                                        (0163) 
                                        (0164)     org   30h                      ;PSoC Block DBB10 Interrupt Vector
                                        (0165)     // call	void_handler
0030: 7E       RETI                     (0166)     reti
                                        (0167) 
                                        (0168)     org   34h                      ;PSoC Block DBB11 Interrupt Vector
                                        (0169)     // call	void_handler
0034: 7E       RETI                     (0170)     reti
                                        (0171) 
                                        (0172)     org   38h                      ;PSoC Block DCB12 Interrupt Vector
                                        (0173)     // call	void_handler
0038: 7E       RETI                     (0174)     reti
                                        (0175) 
                                        (0176)     org   3Ch                      ;PSoC Block DCB13 Interrupt Vector
                                        (0177)     // call	void_handler
003C: 7E       RETI                     (0178)     reti
                                        (0179) 
                                        (0180)     org   40h                      ;PSoC Block DBB20 Interrupt Vector
                                        (0181)     // call	void_handler
0040: 7E       RETI                     (0182)     reti
                                        (0183) 
                                        (0184)     org   44h                      ;PSoC Block DBB21 Interrupt Vector
                                        (0185)     // call	void_handler
0044: 7E       RETI                     (0186)     reti
                                        (0187) 
                                        (0188)     org   48h                      ;PSoC Block DCB22 Interrupt Vector
                                        (0189)     // call	void_handler
0048: 7E       RETI                     (0190)     reti
                                        (0191) 
                                        (0192)     org   4Ch                      ;PSoC Block DCB23 Interrupt Vector
                                        (0193)     // call	void_handler
004C: 7E       RETI                     (0194)     reti
                                        (0195) 
                                        (0196)     org   50h                      ;PSoC Block DBB30 Interrupt Vector
                                        (0197)     // call	void_handler
0050: 7E       RETI                     (0198)     reti
                                        (0199) 
                                        (0200)     org   54h                      ;PSoC Block DBB31 Interrupt Vector
                                        (0201)     // call	void_handler
0054: 7E       RETI                     (0202)     reti
                                        (0203) 
                                        (0204)     org   58h                      ;PSoC Block DCB32 Interrupt Vector
                                        (0205)     // call	void_handler
0058: 7E       RETI                     (0206)     reti
                                        (0207) 
                                        (0208)     org   5Ch                      ;PSoC Block DCB33 Interrupt Vector
                                        (0209)     // call	void_handler
005C: 7E       RETI                     (0210)     reti
                                        (0211) 
                                        (0212)     org   60h                      ;PSoC I2C Interrupt Vector
0060: 7D 05 DB LJMP  _I2CHW_1_ISR       (0213)     ljmp	_I2CHW_1_ISR
0063: 7E       RETI                     (0214)     reti
                                        (0215) 
                                        (0216)     org   64h                      ;Sleep Timer Interrupt Vector
                                        (0217)     // call	void_handler
0064: 7E       RETI                     (0218)     reti
0068: 71 10    OR    F,0x10             
                                        (0219)     ;---------------------------------------------------
                                        (0220)     ; Insert your custom code above this banner
                                        (0221)     ;---------------------------------------------------
                                        (0222)     ;@PSoC_BOOT_ISR_UserCode_END@
                                        (0223) 
                                        (0224) ;-----------------------------------------------------------------------------
                                        (0225) ;  Start of Execution.
                                        (0226) ;-----------------------------------------------------------------------------
                                        (0227) ;  The Supervisory ROM SWBootReset function has already completed the
                                        (0228) ;  calibrate1 process, loading trim values for 5 volt operation.
                                        (0229) ;
                                        (0230) 
                                        (0231) IF	(TOOLCHAIN & HITECH)
                                        (0232)  	AREA PD_startup(CODE, REL, CON)
                                        (0233) ELSE
                                        (0234)     org 68h
                                        (0235) ENDIF
                                        (0236) __Start:
                                        (0237) 
                                        (0238)     ; initialize SMP values for voltage stabilization, if required,
                                        (0239)     ; leaving power-on reset (POR) level at the default (low) level, at
                                        (0240)     ; least for now. 
                                        (0241)     ;
                                        (0242)     M8C_SetBank1
006A: 62 FA 00 MOV   REG[0xFA],0x0      (0243)     mov reg[0FAh], 0				;Reset flash location
006D: 62 E3 87 MOV   REG[0xE3],0x87     (0244)     mov   reg[VLT_CR], SWITCH_MODE_PUMP_JUST | LVD_TBEN_JUST | TRIP_VOLTAGE_JUST
0070: 70 EF    AND   F,0xEF             
                                        (0245)     M8C_SetBank0
                                        (0246) 
                                        (0247)     ; %53%20%46%46% Apply Erratum 001-05137 workaround
0072: 50 20    MOV   A,0x20             (0248)     mov   A, 20h
0074: 28       ROMX                     (0249)     romx
0075: 50 40    MOV   A,0x40             (0250)     mov   A, 40h
0077: 28       ROMX                     (0251)     romx
0078: 50 60    MOV   A,0x60             (0252)     mov   A, 60h
007A: 28       ROMX                     (0253)     romx
007B: 62 E3 38 MOV   REG[0xE3],0x38     
                                        (0254)     ; %45%20%46%46% End workaround
                                        (0255) 
                                        (0256) M8C_ClearWDTAndSleep			   ; Clear WDT before enabling it.
                                        (0257) IF ( WATCHDOG_ENABLE )             ; WDT selected in Global Params
                                        (0258)     M8C_EnableWatchDog
                                        (0259) ENDIF
                                        (0260) 
                                        (0261) IF ( SELECT_32K )
                                        (0262)     or   reg[CPU_SCR1],  CPU_SCR1_ECO_ALLOWED  ; ECO will be used in this project
                                        (0263) ELSE
007E: 41 FE FB AND   REG[0xFE],0xFB     (0264)     and  reg[CPU_SCR1], ~CPU_SCR1_ECO_ALLOWED  ; Prevent ECO from being enabled
                                        (0265) ENDIF
                                        (0266) 
                                        (0267)     ;---------------------------
                                        (0268)     ; Set up the Temporary stack
                                        (0269)     ;---------------------------
                                        (0270)     ; A temporary stack is set up for the SSC instructions.
                                        (0271)     ; The real stack start will be assigned later.
                                        (0272)     ;
                                        (0273) _stack_start:          equ 80h
0081: 50 80    MOV   A,0x80             (0274)     mov   A, _stack_start          ; Set top of stack to end of used RAM
0083: 4E       SWAP  SP,A               (0275)     swap  SP, A                    ; This is only temporary if going to LMM
0084: 62 E3 38 MOV   REG[0xE3],0x38     
                                        (0276) 
                                        (0277)     ;-----------------------------------------------
                                        (0278)     ; Set Power-related Trim & the AGND Bypass bit.
                                        (0279)     ;-----------------------------------------------
                                        (0280) M8C_ClearWDTAndSleep ; Clear WDT before enabling it.
                                        (0281) 
                                        (0282) IF ( POWER_SETTING & POWER_SET_5V0)            ; *** 5.0 Volt operation   ***
                                        (0283)  IF ( POWER_SETTING & POWER_SET_SLOW_IMO)      ; *** 6MHZ Main Oscillator ***
                                        (0284)     or  reg[CPU_SCR1], CPU_SCR1_SLIMO
                                        (0285)     M8SSC_Set2TableTrims 2, SSCTBL2_TRIM_IMO_5V_6MHZ, 1, SSCTBL1_TRIM_BGR_5V, AGND_BYPASS_JUST
                                        (0286)  ELSE                                          ; *** 12MHZ Main Oscillator ***
                                        (0287)   IF ( AGND_BYPASS )
                                        (0288)     ;- - - - - - - - - - - - - - - - - - - - - - - - - - - - - - - - - - -
                                        (0289)     ; The 5V trim has already been set, but we need to update the AGNDBYP
                                        (0290)     ; bit in the write-only BDG_TR register. Recalculate the register
                                        (0291)     ; value using the proper trim values.
                                        (0292)     ;- - - - - - - - - - - - - - - - - - - - - - - - - - - - - - - - - - -
                                        (0293)     M8SSC_SetTableVoltageTrim 1, SSCTBL1_TRIM_BGR_5V, AGND_BYPASS_JUST
                                        (0294)   ENDIF
                                        (0295)  ENDIF
                                        (0296) ENDIF ; 5.0 V Operation
                                        (0297) 
                                        (0298) IF ( POWER_SETTING & POWER_SET_3V3)            ; *** 3.3 Volt operation   ***
                                        (0299)  IF ( POWER_SETTING & POWER_SET_SLOW_IMO)      ; *** 6MHZ Main Oscillator ***
                                        (0300)     or  reg[CPU_SCR1], CPU_SCR1_SLIMO
                                        (0301)     M8SSC_Set2TableTrims 2, SSCTBL2_TRIM_IMO_3V_6MHZ, 1, SSCTBL1_TRIM_BGR_3V, AGND_BYPASS_JUST
                                        (0302)  ELSE                                          ; *** 12MHZ Main Oscillator ***
                                        (0303)     M8SSC_SetTableTrims  1, SSCTBL1_TRIM_IMO_3V_24MHZ, SSCTBL1_TRIM_BGR_3V, AGND_BYPASS_JUST
                                        (0304)  ENDIF
                                        (0305) ENDIF ; 3.3 Volt Operation
                                        (0306) 
0087: 55 F8 00 MOV   [0xF8],0x0         (0307)     mov  [bSSC_KEY1],  0           ; Lock out Flash and Supervisiory operations
008A: 55 F9 00 MOV   [0xF9],0x0         (0308)     mov  [bSSC_KEYSP], 0
008D: 71 10    OR    F,0x10             
                                        (0309) 
                                        (0310)     ;---------------------------------------
                                        (0311)     ; Initialize Crystal Oscillator and PLL
                                        (0312)     ;---------------------------------------
                                        (0313) 
                                        (0314) IF ( SELECT_32K & WAIT_FOR_32K )
                                        (0315)     ; If the user has requested the External Crystal Oscillator (ECO) then turn it
                                        (0316)     ; on and wait for it to stabilize and the system to switch over to it. The PLL
                                        (0317)     ; is left off. Set the SleepTimer period is set to 1 sec to time the wait for
                                        (0318)     ; the ECO to stabilize.
                                        (0319)     ;
                                        (0320)     M8C_SetBank1
                                        (0321)     mov   reg[OSC_CR0], (SELECT_32K_JUST | OSC_CR0_SLEEP_1Hz | OSC_CR0_CPU_12MHz)
                                        (0322)     M8C_SetBank0
                                        (0323)     M8C_ClearWDTAndSleep                  ; Reset the sleep timer to get a full second
                                        (0324)     or    reg[INT_MSK0], INT_MSK0_SLEEP   ; Enable latching of SleepTimer interrupt
                                        (0325)     mov   reg[INT_VC],   0                ; Clear all pending interrupts
                                        (0326) .WaitFor1s:
                                        (0327)     tst   reg[INT_CLR0], INT_MSK0_SLEEP   ; Test the SleepTimer Interrupt Status
                                        (0328)     jz   .WaitFor1s                       ; Interrupt will latch but will not dispatch
                                        (0329)                                           ;   since interrupts are not globally enabled
                                        (0330) ELSE ; !( SELECT_32K & WAIT_FOR_32K )
                                        (0331)     ; Either no ECO, or waiting for stable clock is to be done in main
                                        (0332)     M8C_SetBank1
008F: 62 E0 02 MOV   REG[0xE0],0x2      (0333)     mov   reg[OSC_CR0], (SELECT_32K_JUST | PLL_MODE_JUST | SLEEP_TIMER_JUST | OSC_CR0_CPU_12MHz)
0092: 70 EF    AND   F,0xEF             
0094: 62 E3 38 MOV   REG[0xE3],0x38     
                                        (0334)     M8C_SetBank0
                                        (0335)     M8C_ClearWDTAndSleep           ; Reset the watch dog
                                        (0336) 
                                        (0337) ENDIF ;( SELECT_32K & WAIT_FOR_32K )
                                        (0338) 
                                        (0339) IF ( PLL_MODE )
                                        (0340)     ; Crystal is now fully operational (assuming WAIT_FOR_32K was enabled).
                                        (0341)     ; Now start up PLL if selected, and wait 16 msec for it to stabilize.
                                        (0342)     ;
                                        (0343)     M8C_SetBank1
                                        (0344)     mov   reg[OSC_CR0], (SELECT_32K_JUST | PLL_MODE_JUST | OSC_CR0_SLEEP_64Hz | OSC_CR0_CPU_3MHz)
                                        (0345)     M8C_SetBank0
                                        (0346)     M8C_ClearWDTAndSleep                  ; Reset the sleep timer to get full period
                                        (0347)     mov   reg[INT_VC], 0                  ; Clear all pending interrupts
                                        (0348) 
                                        (0349) .WaitFor16ms:
                                        (0350)     tst   reg[INT_CLR0],INT_MSK0_SLEEP    ; Test the SleepTimer Interrupt Status
                                        (0351)     jz   .WaitFor16ms
                                        (0352)     M8C_SetBank1                          ; continue boot at CPU Speed of SYSCLK/2
                                        (0353)     mov   reg[OSC_CR0], (SELECT_32K_JUST | PLL_MODE_JUST | OSC_CR0_SLEEP_64Hz | OSC_CR0_CPU_12MHz)
                                        (0354)     M8C_SetBank0
                                        (0355) 
                                        (0356) IF      ( WAIT_FOR_32K )
                                        (0357) ELSE ; !( WAIT_FOR_32K )
                                        (0358)     ; Option settings (PLL-Yes, ECO-No) are incompatible - force a syntax error
                                        (0359)     ERROR_PSoC Disabling WAIT_FOR_32K requires that the PLL_Lock must be enabled in user code.
                                        (0360) ENDIF ;(WAIT_FOR_32K)
                                        (0361) ENDIF ;(PLL_MODE)
                                        (0362) 
                                        (0363) 	;-------------------------------------------------------
                                        (0364)     ; Initialize Proper Drive Mode for External Clock Pin
                                        (0365)     ;-------------------------------------------------------
                                        (0366) 
                                        (0367)     ; Change EXTCLK pin from Hi-Z Analog (110b) drive mode to Hi-Z (010b) drive mode
                                        (0368) 
                                        (0369) IF (SYSCLK_SOURCE)
                                        (0370)     and reg[PRT1DM2],  ~0x10        ; Clear bit 4 of EXTCLK pin's DM2 register 
                                        (0371) ENDIF
                                        (0372)     ; EXTCLK pin is now in proper drive mode to input the external clock signal
                                        (0373) 
                                        (0374)     ;------------------------
                                        (0375)     ; Close CT leakage path.
                                        (0376)     ;------------------------
0097: 62 71 05 MOV   REG[0x71],0x5      (0377)     mov   reg[ACB00CR0], 05h
009A: 62 75 05 MOV   REG[0x75],0x5      (0378)     mov   reg[ACB01CR0], 05h
009D: 62 79 05 MOV   REG[0x79],0x5      (0379)     mov   reg[ACB02CR0], 05h
00A0: 62 7D 05 MOV   REG[0x7D],0x5      (0380)     mov   reg[ACB03CR0], 05h
00A3: 62 D1 07 MOV   REG[0xD1],0x7      
                                        (0381) 
                                        (0382) 
                                        (0383) IF	(TOOLCHAIN & HITECH)
                                        (0384)     ;---------------------------------------------
                                        (0385)     ; HI-TECH initialization: Enter the Large Memory Model, if applicable
                                        (0386)     ;---------------------------------------------
                                        (0387) 	global		__Lstackps
                                        (0388) 	mov     a,low __Lstackps
                                        (0389) 	swap    a,sp
                                        (0390) 
                                        (0391) IF ( SYSTEM_LARGE_MEMORY_MODEL )
                                        (0392)     RAM_SETPAGE_STK SYSTEM_STACK_PAGE      ; relocate stack page ...
                                        (0393)     RAM_SETPAGE_IDX2STK            ; initialize other page pointers
                                        (0394)     RAM_SETPAGE_CUR 0
                                        (0395)     RAM_SETPAGE_MVW 0
                                        (0396)     RAM_SETPAGE_MVR 0
                                        (0397)     IF ( SYSTEM_IDXPG_TRACKS_STK_PP ); Now enable paging:
                                        (0398)     or    F, FLAG_PGMODE_11b       ; LMM w/ IndexPage<==>StackPage
                                        (0399)     ELSE
                                        (0400)     or    F, FLAG_PGMODE_10b       ; LMM w/ independent IndexPage
                                        (0401)     ENDIF ;  SYSTEM_IDXPG_TRACKS_STK_PP
                                        (0402) ENDIF ;  SYSTEM_LARGE_MEMORY_MODEL
                                        (0403) ELSE
                                        (0404)     ;---------------------------------------------
                                        (0405)     ; ImageCraft Enter the Large Memory Model, if applicable
                                        (0406)     ;---------------------------------------------
                                        (0407) IF ( SYSTEM_LARGE_MEMORY_MODEL )
                                        (0408)     RAM_SETPAGE_STK SYSTEM_STACK_PAGE      ; relocate stack page ...
00A6: 50 00    MOV   A,0x0              (0409)     mov   A, SYSTEM_STACK_BASE_ADDR        ;   and offset, if any
00A8: 4E       SWAP  SP,A               (0410)     swap  A, SP
00A9: 62 D3 07 MOV   REG[0xD3],0x7      
00AC: 62 D0 00 MOV   REG[0xD0],0x0      
00AF: 62 D5 00 MOV   REG[0xD5],0x0      
00B2: 62 D4 00 MOV   REG[0xD4],0x0      
                                        (0411)     RAM_SETPAGE_IDX2STK            ; initialize other page pointers
                                        (0412)     RAM_SETPAGE_CUR 0
                                        (0413)     RAM_SETPAGE_MVW 0
                                        (0414)     RAM_SETPAGE_MVR 0
                                        (0415) 
                                        (0416)   IF ( SYSTEM_IDXPG_TRACKS_STK_PP ); Now enable paging:
00B5: 71 C0    OR    F,0xC0             (0417)     or    F, FLAG_PGMODE_11b       ; LMM w/ IndexPage<==>StackPage
                                        (0418)   ELSE
                                        (0419)     or    F, FLAG_PGMODE_10b       ; LMM w/ independent IndexPage
                                        (0420)   ENDIF ;  SYSTEM_IDXPG_TRACKS_STK_PP
                                        (0421) ELSE
                                        (0422)     mov   A, __ramareas_end        ; Set top of stack to end of used RAM
                                        (0423)     swap  SP, A
                                        (0424) ENDIF ;  SYSTEM_LARGE_MEMORY_MODEL
                                        (0425) ENDIF ;	TOOLCHAIN
                                        (0426) 
                                        (0427)     ;@PSoC_BOOT_LOADCFG_UserCode_START@
                                        (0428)     ;---------------------------------------------------
                                        (0429)     ; Insert your custom code below this banner
                                        (0430)     ;---------------------------------------------------
                                        (0431) 
                                        (0432)     ;---------------------------------------------------
                                        (0433)     ; Insert your custom code above this banner
                                        (0434)     ;---------------------------------------------------
                                        (0435)     ;@PSoC_BOOT_LOADCFG_UserCode_END@ 
                                        (0436) 
                                        (0437)     ;-------------------------
                                        (0438)     ; Load Base Configuration
                                        (0439)     ;-------------------------
                                        (0440)     ; Load global parameter settings and load the user modules in the
                                        (0441)     ; base configuration. Exceptions: (1) Leave CPU Speed fast as possible
                                        (0442)     ; to minimize start up time; (2) We may still need to play with the
                                        (0443)     ; Sleep Timer.
                                        (0444)     ;
00B7: 7C 03 5A LCALL 0x035A             (0445)     lcall LoadConfigInit
                                        (0446) 
                                        (0447)     ;-----------------------------------
                                        (0448)     ; Initialize C Run-Time Environment
                                        (0449)     ;-----------------------------------
                                        (0450) IF ( C_LANGUAGE_SUPPORT )
                                        (0451) IF ( SYSTEM_SMALL_MEMORY_MODEL )
                                        (0452)     mov  A,0                           ; clear the 'bss' segment to zero
                                        (0453)     mov  [__r0],<__bss_start
                                        (0454) BssLoop:
                                        (0455)     cmp  [__r0],<__bss_end
                                        (0456)     jz   BssDone
                                        (0457)     mvi  [__r0],A
                                        (0458)     jmp  BssLoop
                                        (0459) BssDone:
                                        (0460)     mov  A,>__idata_start              ; copy idata to data segment
                                        (0461)     mov  X,<__idata_start
                                        (0462)     mov  [__r0],<__data_start
                                        (0463) IDataLoop:
                                        (0464)     cmp  [__r0],<__data_end
                                        (0465)     jz   C_RTE_Done
                                        (0466)     push A
                                        (0467)     romx
                                        (0468)     mvi  [__r0],A
                                        (0469)     pop  A
                                        (0470)     inc  X
                                        (0471)     adc  A,0
                                        (0472)     jmp  IDataLoop
                                        (0473) 
                                        (0474) ENDIF ; SYSTEM_SMALL_MEMORY_MODEL
                                        (0475) 
                                        (0476) IF ( SYSTEM_LARGE_MEMORY_MODEL )
00BA: 62 D0 00 MOV   REG[0xD0],0x0      (0477)     mov   reg[CUR_PP], >__r0           ; force direct addr mode instructions
                                        (0478)                                        ; to use the Virtual Register page.
                                        (0479) 
                                        (0480)     ; Dereference the constant (flash) pointer pXIData to access the start
                                        (0481)     ; of the extended idata area, "xidata." Xidata follows the end of the
                                        (0482)     ; text segment and may have been relocated by the Code Compressor.
                                        (0483)     ;
00BD: 50 02    MOV   A,0x2              (0484)     mov   A, >__pXIData                ; Get the address of the flash
00BF: 57 35    MOV   X,0x35             (0485)     mov   X, <__pXIData                ;   pointer to the xidata area.
00C1: 08       PUSH  A                  (0486)     push  A
00C2: 28       ROMX                     (0487)     romx                               ; get the MSB of xidata's address
00C3: 53 57    MOV   [__r0],A           (0488)     mov   [__r0], A
00C5: 18       POP   A                  (0489)     pop   A
00C6: 75       INC   X                  (0490)     inc   X
00C7: 09 00    ADC   A,0x0              (0491)     adc   A, 0
00C9: 28       ROMX                     (0492)     romx                               ; get the LSB of xidata's address
00CA: 4B       SWAP  A,X                (0493)     swap  A, X
00CB: 51 57    MOV   A,[__r0]           (0494)     mov   A, [__r0]                    ; pXIData (in [A,X]) points to the
                                        (0495)                                        ;   XIData structure list in flash
00CD: 80 04    JMP   0x00D2             (0496)     jmp   .AccessStruct
                                        (0497) 
                                        (0498)     ; Unpack one element in the xidata "structure list" that specifies the
                                        (0499)     ; values of C variables. Each structure contains 3 member elements.
                                        (0500)     ; The first is a pointer to a contiguous block of RAM to be initial-
                                        (0501)     ; ized. Blocks are always 255 bytes or less in length and never cross
                                        (0502)     ; RAM page boundaries. The list terminates when the MSB of the pointer
                                        (0503)     ; contains 0xFF. There are two formats for the struct depending on the
                                        (0504)     ; value in the second member element, an unsigned byte:
                                        (0505)     ; (1) If the value of the second element is non-zero, it represents
                                        (0506)     ; the 'size' of the block of RAM to be initialized. In this case, the
                                        (0507)     ; third member of the struct is an array of bytes of length 'size' and
                                        (0508)     ; the bytes are copied to the block of RAM.
                                        (0509)     ; (2) If the value of the second element is zero, the block of RAM is
                                        (0510)     ; to be cleared to zero. In this case, the third member of the struct
                                        (0511)     ; is an unsigned byte containing the number of bytes to clear.
                                        (0512) 
                                        (0513) .AccessNextStructLoop:
00CF: 75       INC   X                  (0514)     inc   X                            ; pXIData++
00D0: 09 00    ADC   A,0x0              (0515)     adc   A, 0
00D2: 62 E3 00 MOV   REG[0xE3],0x0      
                                        (0516) .AccessStruct:                         ; Entry point for first block
                                        (0517)     ;
                                        (0518)     ; Assert: pXIData in [A,X] points to the beginning of an XIData struct.
                                        (0519)     ;
                                        (0520)     M8C_ClearWDT                       ; Clear the watchdog for long inits
00D5: 08       PUSH  A                  (0521)     push  A
00D6: 28       ROMX                     (0522)     romx                               ; MSB of RAM addr (CPU.A <- *pXIData)
00D7: 60 D5    MOV   REG[0xD5],A        (0523)     mov   reg[MVW_PP], A               ;   for use with MVI write operations
00D9: 74       INC   A                  (0524)     inc   A                            ; End of Struct List? (MSB==0xFF?)
00DA: A0 4B    JZ    0x0126             (0525)     jz    .C_RTE_WrapUp                ;   Yes, C runtime environment complete
00DC: 18       POP   A                  (0526)     pop   A                            ; restore pXIData to [A,X]
00DD: 75       INC   X                  (0527)     inc   X                            ; pXIData++
00DE: 09 00    ADC   A,0x0              (0528)     adc   A, 0
00E0: 08       PUSH  A                  (0529)     push  A
00E1: 28       ROMX                     (0530)     romx                               ; LSB of RAM addr (CPU.A <- *pXIData)
00E2: 53 57    MOV   [__r0],A           (0531)     mov   [__r0], A                    ; RAM Addr now in [reg[MVW_PP],[__r0]]
00E4: 18       POP   A                  (0532)     pop   A                            ; restore pXIData to [A,X]
00E5: 75       INC   X                  (0533)     inc   X                            ; pXIData++ (point to size)
00E6: 09 00    ADC   A,0x0              (0534)     adc   A, 0
00E8: 08       PUSH  A                  (0535)     push  A
00E9: 28       ROMX                     (0536)     romx                               ; Get the size (CPU.A <- *pXIData)
00EA: A0 1C    JZ    0x0107             (0537)     jz    .ClearRAMBlockToZero         ; If Size==0, then go clear RAM
00EC: 53 56    MOV   [__r1],A           (0538)     mov   [__r1], A                    ;             else downcount in __r1
00EE: 18       POP   A                  (0539)     pop   A                            ; restore pXIData to [A,X]
                                        (0540) 
                                        (0541) .CopyNextByteLoop:
                                        (0542)     ; For each byte in the structure's array member, copy from flash to RAM.
                                        (0543)     ; Assert: pXIData in [A,X] points to previous byte of flash source;
                                        (0544)     ;         [reg[MVW_PP],[__r0]] points to next RAM destination;
                                        (0545)     ;         __r1 holds a non-zero count of the number of bytes remaining.
                                        (0546)     ;
00EF: 75       INC   X                  (0547)     inc   X                            ; pXIData++ (point to next data byte)
00F0: 09 00    ADC   A,0x0              (0548)     adc   A, 0
00F2: 08       PUSH  A                  (0549)     push  A
00F3: 28       ROMX                     (0550)     romx                               ; Get the data value (CPU.A <- *pXIData)
00F4: 3F 57    MVI   [__r0],A           (0551)     mvi   [__r0], A                    ; Transfer the data to RAM
00F6: 47 57 FF TST   [__r0],0xFF        (0552)     tst   [__r0], 0xff                 ; Check for page crossing
00F9: B0 06    JNZ   0x0100             (0553)     jnz   .CopyLoopTail                ;   No crossing, keep going
00FB: 5D D5    MOV   A,REG[0xD5]        (0554)     mov   A, reg[ MVW_PP]              ;   If crossing, bump MVW page reg
00FD: 74       INC   A                  (0555)     inc   A
00FE: 60 D5    MOV   REG[0xD5],A        (0556)     mov   reg[ MVW_PP], A
                                        (0557) .CopyLoopTail:
0100: 18       POP   A                  (0558)     pop   A                            ; restore pXIData to [A,X]
0101: 7A 56    DEC   [__r1]             (0559)     dec   [__r1]                       ; End of this array in flash?
0103: BF EB    JNZ   0x00EF             (0560)     jnz   .CopyNextByteLoop            ;   No,  more bytes to copy
0105: 8F C9    JMP   0x00CF             (0561)     jmp   .AccessNextStructLoop        ;   Yes, initialize another RAM block
                                        (0562) 
                                        (0563) .ClearRAMBlockToZero:
0107: 18       POP   A                  (0564)     pop   A                            ; restore pXIData to [A,X]
0108: 75       INC   X                  (0565)     inc   X                            ; pXIData++ (point to next data byte)
0109: 09 00    ADC   A,0x0              (0566)     adc   A, 0
010B: 08       PUSH  A                  (0567)     push  A
010C: 28       ROMX                     (0568)     romx                               ; Get the run length (CPU.A <- *pXIData)
010D: 53 56    MOV   [__r1],A           (0569)     mov   [__r1], A                    ; Initialize downcounter
010F: 50 00    MOV   A,0x0              (0570)     mov   A, 0                         ; Initialize source data
                                        (0571) 
                                        (0572) .ClearRAMBlockLoop:
                                        (0573)     ; Assert: [reg[MVW_PP],[__r0]] points to next RAM destination and
                                        (0574)     ;         __r1 holds a non-zero count of the number of bytes remaining.
                                        (0575)     ;
0111: 3F 57    MVI   [__r0],A           (0576)     mvi   [__r0], A                    ; Clear a byte
0113: 47 57 FF TST   [__r0],0xFF        (0577)     tst   [__r0], 0xff                 ; Check for page crossing
0116: B0 08    JNZ   0x011F             (0578)     jnz   .ClearLoopTail               ;   No crossing, keep going
0118: 5D D5    MOV   A,REG[0xD5]        (0579)     mov   A, reg[ MVW_PP]              ;   If crossing, bump MVW page reg
011A: 74       INC   A                  (0580)     inc   A
011B: 60 D5    MOV   REG[0xD5],A        (0581)     mov   reg[ MVW_PP], A
011D: 50 00    MOV   A,0x0              (0582)     mov   A, 0                         ; Restore the zero used for clearing
                                        (0583) .ClearLoopTail:
011F: 7A 56    DEC   [__r1]             (0584)     dec   [__r1]                       ; Was this the last byte?
0121: BF EF    JNZ   0x0111             (0585)     jnz   .ClearRAMBlockLoop           ;   No,  continue
0123: 18       POP   A                  (0586)     pop   A                            ;   Yes, restore pXIData to [A,X] and
0124: 8F AA    JMP   0x00CF             (0587)     jmp   .AccessNextStructLoop        ;        initialize another RAM block
                                        (0588) 
                                        (0589) .C_RTE_WrapUp:
0126: 18       POP   A                  (0590)     pop   A                            ; balance stack
0127: 71 10    OR    F,0x10             
0129: 70 EF    AND   F,0xEF             
                                        (0591) 
                                        (0592) ENDIF ; SYSTEM_LARGE_MEMORY_MODEL
                                        (0593) 
                                        (0594) C_RTE_Done:
                                        (0595) 
                                        (0596) ENDIF ; C_LANGUAGE_SUPPORT
                                        (0597) 
                                        (0598)     ;-------------------------------
                                        (0599)     ; Voltage Stabilization for SMP
                                        (0600)     ;-------------------------------
                                        (0601) 
                                        (0602) IF ( POWER_SETTING & POWER_SET_5V0)    ; 5.0V Operation
                                        (0603) IF ( SWITCH_MODE_PUMP ^ 1 )            ; SMP is operational
                                        (0604)     ;- - - - - - - - - - - - - - - - - - - - - - - - - - - - - - - - - - -
                                        (0605)     ; When using the SMP at 5V, we must wait for Vdd to slew from 3.1V to
                                        (0606)     ; 5V before enabling the Precision Power-On Reset (PPOR).
                                        (0607)     ;- - - - - - - - - - - - - - - - - - - - - - - - - - - - - - - - - - -
                                        (0608)     or   reg[INT_MSK0],INT_MSK0_SLEEP
                                        (0609)     M8C_SetBank1
                                        (0610)     and   reg[OSC_CR0], ~OSC_CR0_SLEEP
                                        (0611)     or    reg[OSC_CR0],  OSC_CR0_SLEEP_512Hz
                                        (0612)     M8C_SetBank0
                                        (0613)     M8C_ClearWDTAndSleep                   ; Restart the sleep timer
                                        (0614)     mov   reg[INT_VC], 0                   ; Clear all pending interrupts
                                        (0615) .WaitFor2ms:
                                        (0616)     tst   reg[INT_CLR0], INT_MSK0_SLEEP    ; Test the SleepTimer Interrupt Status
                                        (0617)     jz   .WaitFor2ms                       ; Branch fails when 2 msec has passed
                                        (0618) ENDIF ; SMP is operational
                                        (0619) ENDIF ; 5.0V Operation
                                        (0620) 
                                        (0621)     ;-------------------------------
                                        (0622)     ; Set Power-On Reset (POR) Level
                                        (0623)     ;-------------------------------
                                        (0624)     ;  The writes to the VLT_CR register below include setting the POR to VLT_CR_POR_HIGH, 
                                        (0625)     ;  VLT_CR_POR_MID or VLT_CR_POR_LOW. Correctly setting this value is critical to the proper 
                                        (0626)     ;  operation of the PSoC. The POR protects the M8C from mis-executing when Vdd falls low. 
                                        (0627)     ;  These values should not be changed from the settings here. See Section "POR and LVD" of 
                                        (0628)     ;  Technical Reference Manual #001-14463 for more information.
                                        (0629) 
                                        (0630)     M8C_SetBank1
                                        (0631) 
                                        (0632) IF (POWER_SETTING & POWER_SET_5V0)          ; 5.0V Operation?
                                        (0633)  IF (POWER_SETTING & POWER_SET_SLOW_IMO)    ; and Slow Mode?
                                        (0634)  ELSE                                       ;    No, fast mode
                                        (0635)   IF ( CPU_CLOCK_JUST ^ OSC_CR0_CPU_24MHz ) ;    As fast as 24MHz?
                                        (0636)                                             ;       no, set midpoint POR in user code, if desired
                                        (0637)   ELSE ; 24HMz                              ;
                                        (0638)     or    reg[VLT_CR],  VLT_CR_POR_HIGH     ;      yes, highest POR trip point required
                                        (0639)   ENDIF ; 24MHz
                                        (0640)  ENDIF ; Slow Mode
                                        (0641) ENDIF ; 5.0V Operation
                                        (0642) 
                                        (0643)     M8C_SetBank0
                                        (0644) 
                                        (0645)     ;----------------------------
                                        (0646)     ; Wrap up and invoke "main"
                                        (0647)     ;----------------------------
                                        (0648) 
                                        (0649)     ; Disable the Sleep interrupt that was used for timing above.  In fact,
                                        (0650)     ; no interrupts should be enabled now, so may as well clear the register.
                                        (0651)     ;
012B: 62 E0 00 MOV   REG[0xE0],0x0      (0652)     mov  reg[INT_MSK0],0
012E: 71 10    OR    F,0x10             
                                        (0653) 
                                        (0654)     ; Everything has started OK. Now select requested CPU & sleep frequency.
                                        (0655)     ; And put decimator in full mode so it does not consume too much current.
                                        (0656)     ;
                                        (0657)     M8C_SetBank1
0130: 62 E0 00 MOV   REG[0xE0],0x0      (0658)     mov  reg[OSC_CR0],(SELECT_32K_JUST | PLL_MODE_JUST | SLEEP_TIMER_JUST | CPU_CLOCK_JUST)
0133: 43 E7 80 OR    REG[0xE7],0x80     (0659)     or   reg[DEC_CR2],80h                    ; Put decimator in full mode
0136: 70 EF    AND   F,0xEF             
                                        (0660)     M8C_SetBank0
                                        (0661) 
                                        (0662)     ; Global Interrupt are NOT enabled, this should be done in main().
                                        (0663)     ; LVD is set but will not occur unless Global Interrupts are enabled.
                                        (0664)     ; Global Interrupts should be enabled as soon as possible in main().
                                        (0665)     ;
0138: 62 E2 00 MOV   REG[0xE2],0x0      (0666)     mov  reg[INT_VC],0             ; Clear any pending interrupts which may
                                        (0667)                                    ; have been set during the boot process.
                                        (0668) IF	(TOOLCHAIN & HITECH)
                                        (0669) 	ljmp  startup                  ; Jump to C compiler startup code
                                        (0670) ELSE
                                        (0671) IF ENABLE_LJMP_TO_MAIN
                                        (0672)     ljmp  _main                    ; goto main (no return)
                                        (0673) ELSE
013B: 7C 10 D2 LCALL _main              (0674)     lcall _main                    ; call main
                                        (0675) .Exit:
013E: 8F FF    JMP   0x013E             (0676)     jmp  .Exit                     ; Wait here after return till power-off or reset
                                        (0677) ENDIF
                                        (0678) ENDIF ; TOOLCHAIN
                                        (0679) 
                                        (0680)     ;---------------------------------
                                        (0681)     ; Library Access to Global Parms
                                        (0682)     ;---------------------------------
                                        (0683)     ;
                                        (0684)  bGetPowerSetting:
                                        (0685) _bGetPowerSetting:
                                        (0686)     ; Returns value of POWER_SETTING in the A register.
                                        (0687)     ; No inputs. No Side Effects.
                                        (0688)     ;
0140: 50 10    MOV   A,0x10             (0689)     mov   A, POWER_SETTING
0142: 7F       RET                      (0690)     ret
                                        (0691) 
                                        (0692) IF	(TOOLCHAIN & HITECH)
                                        (0693) ELSE
                                        (0694)     ;---------------------------------
                                        (0695)     ; Order Critical RAM & ROM AREAs
                                        (0696)     ;---------------------------------
                                        (0697)     ;  'TOP' is all that has been defined so far...
                                        (0698) 
                                        (0699)     ;  ROM AREAs for C CONST, static & global items
                                        (0700)     ;
                                        (0701)     AREA lit               (ROM, REL, CON, LIT)   ; 'const' definitions
                                        (0702)     AREA idata             (ROM, REL, CON, LIT)   ; Constants for initializing RAM
                                        (0703) __idata_start:
                                        (0704) 
                                        (0705)     AREA func_lit          (ROM, REL, CON, proclab)   ; Function Pointers
                                        (0706) __func_lit_start:
                                        (0707) 
                                        (0708) IF ( SYSTEM_LARGE_MEMORY_MODEL )
                                        (0709)     ; We use the func_lit area to store a pointer to extended initialized
                                        (0710)     ; data (xidata) area that follows the text area. Func_lit isn't
                                        (0711)     ; relocated by the code compressor, but the text area may shrink and
                                        (0712)     ; that moves xidata around.
                                        (0713)     ;
                                        (0714) __pXIData:         word __text_end           ; ptr to extended idata
                                        (0715) ENDIF
                                        (0716) 
                                        (0717)     AREA psoc_config       (ROM, REL, CON)   ; Configuration Load & Unload
                                        (0718)     AREA UserModules       (ROM, REL, CON)   ; User Module APIs
                                        (0719) 
                                        (0720)     ; CODE segment for general use
                                        (0721)     ;
                                        (0722)     AREA text (ROM, REL, CON)
                                        (0723) __text_start:
                                        (0724) 
                                        (0725)     ; RAM area usage
                                        (0726)     ;
                                        (0727)     AREA data              (RAM, REL, CON)   ; initialized RAM
                                        (0728) __data_start:
                                        (0729) 
                                        (0730)     AREA virtual_registers (RAM, REL, CON)   ; Temp vars of C compiler
                                        (0731)     AREA InterruptRAM      (RAM, REL, CON)   ; Interrupts, on Page 0
                                        (0732)     AREA bss               (RAM, REL, CON)   ; general use
                                        (0733) __bss_start:
                                        (0734) 
                                        (0735) ENDIF ; TOOLCHAIN
                                        (0736) 
                                        (0737) ; end of file boot.asm
FILE: lib\psocconfigtbl.asm             (0001) ;  Generated by PSoC Designer 5.4.3191
0255: 70 EF    AND   F,0xEF             (0002) ;
                                        (0003) ; =============================================================================
                                        (0004) ; FILENAME: PSoCConfigTBL.asm
                                        (0005) ;  
                                        (0006) ; Copyright (c) Cypress Semiconductor 2013. All Rights Reserved.
                                        (0007) ;  
                                        (0008) ; NOTES:
                                        (0009) ; Do not modify this file. It is generated by PSoC Designer each time the
                                        (0010) ; generate application function is run. The values of the parameters in this
                                        (0011) ; file can be modified by changing the values of the global parameters in the
                                        (0012) ; device editor.
                                        (0013) ;  
                                        (0014) ; =============================================================================
                                        (0015)  
                                        (0016) include "m8c.inc"
                                        (0017) ;  Personalization tables 
                                        (0018) export LoadConfigTBL_modulio_adxl345_Bank1
                                        (0019) export LoadConfigTBL_modulio_adxl345_Bank0
                                        (0020) export LoadConfigTBL_modulio_adxl345_Ordered
                                        (0021) AREA lit(rom, rel)
                                        (0022) LoadConfigTBL_modulio_adxl345_Bank0:
                                        (0023) ;  Instance name I2CHW_1, User Module I2CHW
                                        (0024) ;  Global Register values Bank 0
                                        (0025) 	db		60h, 28h		; AnalogColumnInputSelect register (AMX_IN)
                                        (0026) 	db		66h, 00h		; AnalogComparatorControl1 register (CMP_CR1)
                                        (0027) 	db		63h, 05h		; AnalogReferenceControl register (ARF_CR)
                                        (0028) 	db		65h, 00h		; AnalogSyncControl register (ASY_CR)
                                        (0029) 	db		e6h, 00h		; DecimatorControl_0 register (DEC_CR0)
                                        (0030) 	db		e7h, 00h		; DecimatorControl_1 register (DEC_CR1)
                                        (0031) 	db		d6h, 08h		; I2CConfig register (I2C_CFG)
                                        (0032) 	db		b0h, 00h		; Row_0_InputMux register (RDI0RI)
                                        (0033) 	db		b1h, 00h		; Row_0_InputSync register (RDI0SYN)
                                        (0034) 	db		b2h, 00h		; Row_0_LogicInputAMux register (RDI0IS)
                                        (0035) 	db		b3h, 33h		; Row_0_LogicSelect_0 register (RDI0LT0)
                                        (0036) 	db		b4h, 33h		; Row_0_LogicSelect_1 register (RDI0LT1)
                                        (0037) 	db		b5h, 00h		; Row_0_OutputDrive_0 register (RDI0SRO0)
                                        (0038) 	db		b6h, 00h		; Row_0_OutputDrive_1 register (RDI0SRO1)
                                        (0039) 	db		b8h, 55h		; Row_1_InputMux register (RDI1RI)
                                        (0040) 	db		b9h, 00h		; Row_1_InputSync register (RDI1SYN)
                                        (0041) 	db		bah, 10h		; Row_1_LogicInputAMux register (RDI1IS)
                                        (0042) 	db		bbh, 33h		; Row_1_LogicSelect_0 register (RDI1LT0)
                                        (0043) 	db		bch, 33h		; Row_1_LogicSelect_1 register (RDI1LT1)
                                        (0044) 	db		bdh, 00h		; Row_1_OutputDrive_0 register (RDI1SRO0)
                                        (0045) 	db		beh, 00h		; Row_1_OutputDrive_1 register (RDI1SRO1)
                                        (0046) 	db		c0h, 00h		; Row_2_InputMux register (RDI2RI)
                                        (0047) 	db		c1h, 00h		; Row_2_InputSync register (RDI2SYN)
                                        (0048) 	db		c2h, 20h		; Row_2_LogicInputAMux register (RDI2IS)
                                        (0049) 	db		c3h, 33h		; Row_2_LogicSelect_0 register (RDI2LT0)
                                        (0050) 	db		c4h, 33h		; Row_2_LogicSelect_1 register (RDI3LT1)
                                        (0051) 	db		c5h, 00h		; Row_2_OutputDrive_0 register (RDI2SRO0)
                                        (0052) 	db		c6h, 00h		; Row_2_OutputDrive_1 register (RDI2SRO1)
                                        (0053) 	db		c8h, 55h		; Row_3_InputMux register (RDI3RI)
                                        (0054) 	db		c9h, 00h		; Row_3_InputSync register (RDI3SYN)
                                        (0055) 	db		cah, 30h		; Row_3_LogicInputAMux register (RDI3IS)
                                        (0056) 	db		cbh, 33h		; Row_3_LogicSelect_0 register (RDI3LT0)
                                        (0057) 	db		cch, 33h		; Row_3_LogicSelect_1 register (RDI3LT1)
                                        (0058) 	db		cdh, 00h		; Row_3_OutputDrive_0 register (RDI3SRO0)
                                        (0059) 	db		ceh, 00h		; Row_3_OutputDrive_1 register (RDI3SRO1)
                                        (0060) 	db		6ch, 00h		; TMP_DR0 register (TMP_DR0)
                                        (0061) 	db		6dh, 00h		; TMP_DR1 register (TMP_DR1)
                                        (0062) 	db		6eh, 00h		; TMP_DR2 register (TMP_DR2)
                                        (0063) 	db		6fh, 00h		; TMP_DR3 register (TMP_DR3)
                                        (0064) 	db		ffh
                                        (0065) LoadConfigTBL_modulio_adxl345_Bank1:
                                        (0066) ;  Instance name I2CHW_1, User Module I2CHW
                                        (0067) ;  Global Register values Bank 1
                                        (0068) 	db		61h, 00h		; AnalogClockSelect1 register (CLK_CR1)
                                        (0069) 	db		69h, 00h		; AnalogClockSelect2 register (CLK_CR2)
                                        (0070) 	db		60h, 00h		; AnalogColumnClockSelect register (CLK_CR0)
                                        (0071) 	db		62h, 00h		; AnalogIOControl_0 register (ABF_CR0)
                                        (0072) 	db		67h, 33h		; AnalogLUTControl0 register (ALT_CR0)
                                        (0073) 	db		68h, 33h		; AnalogLUTControl1 register (ALT_CR1)
                                        (0074) 	db		63h, 00h		; AnalogModulatorControl_0 register (AMD_CR0)
                                        (0075) 	db		66h, 00h		; AnalogModulatorControl_1 register (AMD_CR1)
                                        (0076) 	db		d1h, 00h		; GlobalDigitalInterconnect_Drive_Even_Input register (GDI_E_IN)
                                        (0077) 	db		d3h, 00h		; GlobalDigitalInterconnect_Drive_Even_Output register (GDI_E_OU)
                                        (0078) 	db		d0h, 00h		; GlobalDigitalInterconnect_Drive_Odd_Input register (GDI_O_IN)
                                        (0079) 	db		d2h, 00h		; GlobalDigitalInterconnect_Drive_Odd_Output register (GDI_O_OU)
                                        (0080) 	db		e1h, ffh		; OscillatorControl_1 register (OSC_CR1)
                                        (0081) 	db		e2h, 00h		; OscillatorControl_2 register (OSC_CR2)
                                        (0082) 	db		dfh, ffh		; OscillatorControl_3 register (OSC_CR3)
                                        (0083) 	db		deh, 02h		; OscillatorControl_4 register (OSC_CR4)
                                        (0084) 	db		ddh, 00h		; OscillatorGlobalBusEnableControl register (OSC_GO_EN)
                                        (0085) 	db		e7h, 00h		; Type2Decimator_Control register (DEC_CR2)
                                        (0086) 	db		ffh
                                        (0087) AREA psoc_config(rom, rel)
                                        (0088) LoadConfigTBL_modulio_adxl345_Ordered:
                                        (0089) ;  Ordered Global Register values
                                        (0090) 	M8C_SetBank0
0257: 62 00 00 MOV   REG[0x0],0x0       (0091) 	mov	reg[00h], 00h		; Port_0_Data register (PRT0DR)
025A: 71 10    OR    F,0x10             
                                        (0092) 	M8C_SetBank1
025C: 62 00 00 MOV   REG[0x0],0x0       (0093) 	mov	reg[00h], 00h		; Port_0_DriveMode_0 register (PRT0DM0)
025F: 62 01 FF MOV   REG[0x1],0xFF      (0094) 	mov	reg[01h], ffh		; Port_0_DriveMode_1 register (PRT0DM1)
0262: 70 EF    AND   F,0xEF             
                                        (0095) 	M8C_SetBank0
0264: 62 03 FF MOV   REG[0x3],0xFF      (0096) 	mov	reg[03h], ffh		; Port_0_DriveMode_2 register (PRT0DM2)
0267: 62 02 00 MOV   REG[0x2],0x0       (0097) 	mov	reg[02h], 00h		; Port_0_GlobalSelect register (PRT0GS)
026A: 71 10    OR    F,0x10             
                                        (0098) 	M8C_SetBank1
026C: 62 02 00 MOV   REG[0x2],0x0       (0099) 	mov	reg[02h], 00h		; Port_0_IntCtrl_0 register (PRT0IC0)
026F: 62 03 00 MOV   REG[0x3],0x0       (0100) 	mov	reg[03h], 00h		; Port_0_IntCtrl_1 register (PRT0IC1)
0272: 70 EF    AND   F,0xEF             
                                        (0101) 	M8C_SetBank0
0274: 62 01 00 MOV   REG[0x1],0x0       (0102) 	mov	reg[01h], 00h		; Port_0_IntEn register (PRT0IE)
0277: 62 04 A0 MOV   REG[0x4],0xA0      (0103) 	mov	reg[04h], a0h		; Port_1_Data register (PRT1DR)
027A: 71 10    OR    F,0x10             
                                        (0104) 	M8C_SetBank1
027C: 62 04 A0 MOV   REG[0x4],0xA0      (0105) 	mov	reg[04h], a0h		; Port_1_DriveMode_0 register (PRT1DM0)
027F: 62 05 FF MOV   REG[0x5],0xFF      (0106) 	mov	reg[05h], ffh		; Port_1_DriveMode_1 register (PRT1DM1)
0282: 70 EF    AND   F,0xEF             
                                        (0107) 	M8C_SetBank0
0284: 62 07 FF MOV   REG[0x7],0xFF      (0108) 	mov	reg[07h], ffh		; Port_1_DriveMode_2 register (PRT1DM2)
0287: 62 06 00 MOV   REG[0x6],0x0       (0109) 	mov	reg[06h], 00h		; Port_1_GlobalSelect register (PRT1GS)
028A: 71 10    OR    F,0x10             
                                        (0110) 	M8C_SetBank1
028C: 62 06 00 MOV   REG[0x6],0x0       (0111) 	mov	reg[06h], 00h		; Port_1_IntCtrl_0 register (PRT1IC0)
028F: 62 07 00 MOV   REG[0x7],0x0       (0112) 	mov	reg[07h], 00h		; Port_1_IntCtrl_1 register (PRT1IC1)
0292: 70 EF    AND   F,0xEF             
                                        (0113) 	M8C_SetBank0
0294: 62 05 00 MOV   REG[0x5],0x0       (0114) 	mov	reg[05h], 00h		; Port_1_IntEn register (PRT1IE)
0297: 62 08 00 MOV   REG[0x8],0x0       (0115) 	mov	reg[08h], 00h		; Port_2_Data register (PRT2DR)
029A: 71 10    OR    F,0x10             
                                        (0116) 	M8C_SetBank1
029C: 62 08 00 MOV   REG[0x8],0x0       (0117) 	mov	reg[08h], 00h		; Port_2_DriveMode_0 register (PRT2DM0)
029F: 62 09 FF MOV   REG[0x9],0xFF      (0118) 	mov	reg[09h], ffh		; Port_2_DriveMode_1 register (PRT2DM1)
02A2: 70 EF    AND   F,0xEF             
                                        (0119) 	M8C_SetBank0
02A4: 62 0B FF MOV   REG[0xB],0xFF      (0120) 	mov	reg[0bh], ffh		; Port_2_DriveMode_2 register (PRT2DM2)
02A7: 62 0A 00 MOV   REG[0xA],0x0       (0121) 	mov	reg[0ah], 00h		; Port_2_GlobalSelect register (PRT2GS)
02AA: 71 10    OR    F,0x10             
                                        (0122) 	M8C_SetBank1
02AC: 62 0A 00 MOV   REG[0xA],0x0       (0123) 	mov	reg[0ah], 00h		; Port_2_IntCtrl_0 register (PRT2IC0)
02AF: 62 0B 00 MOV   REG[0xB],0x0       (0124) 	mov	reg[0bh], 00h		; Port_2_IntCtrl_1 register (PRT2IC1)
02B2: 70 EF    AND   F,0xEF             
                                        (0125) 	M8C_SetBank0
02B4: 62 09 00 MOV   REG[0x9],0x0       (0126) 	mov	reg[09h], 00h		; Port_2_IntEn register (PRT2IE)
02B7: 62 0C 00 MOV   REG[0xC],0x0       (0127) 	mov	reg[0ch], 00h		; Port_3_Data register (PRT3DR)
02BA: 71 10    OR    F,0x10             
                                        (0128) 	M8C_SetBank1
02BC: 62 0C 00 MOV   REG[0xC],0x0       (0129) 	mov	reg[0ch], 00h		; Port_3_DriveMode_0 register (PRT3DM0)
02BF: 62 0D 00 MOV   REG[0xD],0x0       (0130) 	mov	reg[0dh], 00h		; Port_3_DriveMode_1 register (PRT3DM1)
02C2: 70 EF    AND   F,0xEF             
                                        (0131) 	M8C_SetBank0
02C4: 62 0F 00 MOV   REG[0xF],0x0       (0132) 	mov	reg[0fh], 00h		; Port_3_DriveMode_2 register (PRT3DM2)
02C7: 62 0E 00 MOV   REG[0xE],0x0       (0133) 	mov	reg[0eh], 00h		; Port_3_GlobalSelect register (PRT3GS)
02CA: 71 10    OR    F,0x10             
                                        (0134) 	M8C_SetBank1
02CC: 62 0E 00 MOV   REG[0xE],0x0       (0135) 	mov	reg[0eh], 00h		; Port_3_IntCtrl_0 register (PRT3IC0)
02CF: 62 0F 00 MOV   REG[0xF],0x0       (0136) 	mov	reg[0fh], 00h		; Port_3_IntCtrl_1 register (PRT3IC1)
02D2: 70 EF    AND   F,0xEF             
                                        (0137) 	M8C_SetBank0
02D4: 62 0D 00 MOV   REG[0xD],0x0       (0138) 	mov	reg[0dh], 00h		; Port_3_IntEn register (PRT3IE)
02D7: 62 10 00 MOV   REG[0x10],0x0      (0139) 	mov	reg[10h], 00h		; Port_4_Data register (PRT4DR)
02DA: 71 10    OR    F,0x10             
                                        (0140) 	M8C_SetBank1
02DC: 62 10 00 MOV   REG[0x10],0x0      (0141) 	mov	reg[10h], 00h		; Port_4_DriveMode_0 register (PRT4DM0)
02DF: 62 11 00 MOV   REG[0x11],0x0      (0142) 	mov	reg[11h], 00h		; Port_4_DriveMode_1 register (PRT4DM1)
02E2: 70 EF    AND   F,0xEF             
                                        (0143) 	M8C_SetBank0
02E4: 62 13 00 MOV   REG[0x13],0x0      (0144) 	mov	reg[13h], 00h		; Port_4_DriveMode_2 register (PRT4DM2)
02E7: 62 12 00 MOV   REG[0x12],0x0      (0145) 	mov	reg[12h], 00h		; Port_4_GlobalSelect register (PRT4GS)
02EA: 71 10    OR    F,0x10             
                                        (0146) 	M8C_SetBank1
02EC: 62 12 00 MOV   REG[0x12],0x0      (0147) 	mov	reg[12h], 00h		; Port_4_IntCtrl_0 register (PRT4IC0)
02EF: 62 13 00 MOV   REG[0x13],0x0      (0148) 	mov	reg[13h], 00h		; Port_4_IntCtrl_1 register (PRT4IC1)
02F2: 70 EF    AND   F,0xEF             
                                        (0149) 	M8C_SetBank0
02F4: 62 11 00 MOV   REG[0x11],0x0      (0150) 	mov	reg[11h], 00h		; Port_4_IntEn register (PRT4IE)
02F7: 62 14 00 MOV   REG[0x14],0x0      (0151) 	mov	reg[14h], 00h		; Port_5_Data register (PRT5DR)
02FA: 71 10    OR    F,0x10             
                                        (0152) 	M8C_SetBank1
02FC: 62 14 00 MOV   REG[0x14],0x0      (0153) 	mov	reg[14h], 00h		; Port_5_DriveMode_0 register (PRT5DM0)
02FF: 62 15 00 MOV   REG[0x15],0x0      (0154) 	mov	reg[15h], 00h		; Port_5_DriveMode_1 register (PRT5DM1)
0302: 70 EF    AND   F,0xEF             
                                        (0155) 	M8C_SetBank0
0304: 62 17 00 MOV   REG[0x17],0x0      (0156) 	mov	reg[17h], 00h		; Port_5_DriveMode_2 register (PRT5DM2)
0307: 62 16 00 MOV   REG[0x16],0x0      (0157) 	mov	reg[16h], 00h		; Port_5_GlobalSelect register (PRT5GS)
030A: 71 10    OR    F,0x10             
                                        (0158) 	M8C_SetBank1
030C: 62 16 00 MOV   REG[0x16],0x0      (0159) 	mov	reg[16h], 00h		; Port_5_IntCtrl_0 register (PRT5IC0)
030F: 62 17 00 MOV   REG[0x17],0x0      (0160) 	mov	reg[17h], 00h		; Port_5_IntCtrl_1 register (PRT5IC1)
0312: 70 EF    AND   F,0xEF             
                                        (0161) 	M8C_SetBank0
0314: 62 15 00 MOV   REG[0x15],0x0      (0162) 	mov	reg[15h], 00h		; Port_5_IntEn register (PRT5IE)
0317: 62 18 00 MOV   REG[0x18],0x0      (0163) 	mov	reg[18h], 00h		; Port_6_Data register (PRT6DR)
031A: 71 10    OR    F,0x10             
                                        (0164) 	M8C_SetBank1
031C: 62 18 00 MOV   REG[0x18],0x0      (0165) 	mov	reg[18h], 00h		; Port_6_DriveMode_0 register (PRT6DM0)
031F: 62 19 00 MOV   REG[0x19],0x0      (0166) 	mov	reg[19h], 00h		; Port_6_DriveMode_1 register (PRT6DM1)
0322: 70 EF    AND   F,0xEF             
                                        (0167) 	M8C_SetBank0
0324: 62 1B 00 MOV   REG[0x1B],0x0      (0168) 	mov	reg[1bh], 00h		; Port_6_DriveMode_2 register (PRT6DM2)
0327: 62 1A 00 MOV   REG[0x1A],0x0      (0169) 	mov	reg[1ah], 00h		; Port_6_GlobalSelect register (PRT6GS)
032A: 71 10    OR    F,0x10             
                                        (0170) 	M8C_SetBank1
032C: 62 1A 00 MOV   REG[0x1A],0x0      (0171) 	mov	reg[1ah], 00h		; Port_6_IntCtrl_0 register (PRT6IC0)
032F: 62 1B 00 MOV   REG[0x1B],0x0      (0172) 	mov	reg[1bh], 00h		; Port_6_IntCtrl_1 register (PRT6IC1)
0332: 70 EF    AND   F,0xEF             
                                        (0173) 	M8C_SetBank0
0334: 62 19 00 MOV   REG[0x19],0x0      (0174) 	mov	reg[19h], 00h		; Port_6_IntEn register (PRT6IE)
0337: 62 1C 00 MOV   REG[0x1C],0x0      (0175) 	mov	reg[1ch], 00h		; Port_7_Data register (PRT7DR)
033A: 71 10    OR    F,0x10             
                                        (0176) 	M8C_SetBank1
033C: 62 1C 00 MOV   REG[0x1C],0x0      (0177) 	mov	reg[1ch], 00h		; Port_7_DriveMode_0 register (PRT7DM0)
033F: 62 1D 00 MOV   REG[0x1D],0x0      (0178) 	mov	reg[1dh], 00h		; Port_7_DriveMode_1 register (PRT7DM1)
0342: 70 EF    AND   F,0xEF             
                                        (0179) 	M8C_SetBank0
0344: 62 1F 00 MOV   REG[0x1F],0x0      (0180) 	mov	reg[1fh], 00h		; Port_7_DriveMode_2 register (PRT7DM2)
0347: 62 1E 00 MOV   REG[0x1E],0x0      (0181) 	mov	reg[1eh], 00h		; Port_7_GlobalSelect register (PRT7GS)
034A: 71 10    OR    F,0x10             
                                        (0182) 	M8C_SetBank1
034C: 62 1E 00 MOV   REG[0x1E],0x0      (0183) 	mov	reg[1eh], 00h		; Port_7_IntCtrl_0 register (PRT7IC0)
034F: 62 1F 00 MOV   REG[0x1F],0x0      (0184) 	mov	reg[1fh], 00h		; Port_7_IntCtrl_1 register (PRT7IC1)
0352: 70 EF    AND   F,0xEF             
                                        (0185) 	M8C_SetBank0
0354: 62 1D 00 MOV   REG[0x1D],0x0      (0186) 	mov	reg[1dh], 00h		; Port_7_IntEn register (PRT7IE)
0357: 70 EF    AND   F,0xEF             
                                        (0187) 	M8C_SetBank0
0359: 7F       RET                      (0188) 	ret
                                        (0189) 
                                        (0190) 
                                        (0191) ; PSoC Configuration file trailer PsocConfig.asm
FILE: lib\psocconfig.asm                (0001) ;  Generated by PSoC Designer 5.4.3191
                                        (0002) ;
                                        (0003) ;==========================================================================
                                        (0004) ;  PSoCConfig.asm
                                        (0005) ;  @PSOC_VERSION
                                        (0006) ;
                                        (0007) ;  Version: 0.85
                                        (0008) ;  Revised: June 22, 2004
                                        (0009) ;  Copyright (c) Cypress Semiconductor 2015. All Rights Reserved.
                                        (0010) ;
                                        (0011) ;  This file is generated by the Device Editor on Application Generation.
                                        (0012) ;  It contains code which loads the configuration data table generated in
                                        (0013) ;  the file PSoCConfigTBL.asm
                                        (0014) ;
                                        (0015) ;  DO NOT EDIT THIS FILE MANUALLY, AS IT IS OVERWRITTEN!!!
                                        (0016) ;  Edits to this file will not be preserved.
                                        (0017) ;==========================================================================
                                        (0018) ;
                                        (0019) include "m8c.inc"
                                        (0020) include "memory.inc"
                                        (0021) include "GlobalParams.inc"
                                        (0022) 
                                        (0023) export LoadConfigInit
                                        (0024) export _LoadConfigInit
                                        (0025) export LoadConfig_modulio_adxl345
                                        (0026) export _LoadConfig_modulio_adxl345
                                        (0027) 
                                        (0028) export NO_SHADOW
                                        (0029) export _NO_SHADOW
                                        (0030) 
                                        (0031) FLAG_CFG_MASK:      equ 10h         ;M8C flag register REG address bit mask
                                        (0032) END_CONFIG_TABLE:   equ ffh         ;end of config table indicator
                                        (0033) 
                                        (0034) AREA psoc_config(rom, rel)
                                        (0035) 
                                        (0036) ;---------------------------------------------------------------------------
                                        (0037) ; LoadConfigInit - Establish the start-up configuration (except for a few
                                        (0038) ;                  parameters handled by boot code, like CPU speed). This
                                        (0039) ;                  function can be called from user code, but typically it
                                        (0040) ;                  is only called from boot.
                                        (0041) ;
                                        (0042) ;       INPUTS: None.
                                        (0043) ;      RETURNS: Nothing.
                                        (0044) ; SIDE EFFECTS: Registers are volatile: the A and X registers can be modified!
                                        (0045) ;               In the large memory model currently only the page
                                        (0046) ;               pointer registers listed below are modified.  This does
                                        (0047) ;               not guarantee that in future implementations of this
                                        (0048) ;               function other page pointer registers will not be
                                        (0049) ;               modified.
                                        (0050) ;          
                                        (0051) ;               Page Pointer Registers Modified: 
                                        (0052) ;               CUR_PP
                                        (0053) ;
                                        (0054) _LoadConfigInit:
                                        (0055)  LoadConfigInit:
                                        (0056)     RAM_PROLOGUE RAM_USE_CLASS_4
                                        (0057)     
035A: 7C 03 61 LCALL 0x0361             (0058) 	lcall	LoadConfig_modulio_adxl345
035D: 7C 02 55 LCALL 0x0255             (0059) 	lcall	LoadConfigTBL_modulio_adxl345_Ordered
                                        (0060) 
                                        (0061) 
                                        (0062)     RAM_EPILOGUE RAM_USE_CLASS_4
0360: 7F       RET                      (0063)     ret
                                        (0064) 
                                        (0065) ;---------------------------------------------------------------------------
                                        (0066) ; Load Configuration modulio_adxl345
                                        (0067) ;
                                        (0068) ;    Load configuration registers for modulio_adxl345.
                                        (0069) ;    IO Bank 0 registers a loaded first,then those in IO Bank 1.
                                        (0070) ;
                                        (0071) ;       INPUTS: None.
                                        (0072) ;      RETURNS: Nothing.
                                        (0073) ; SIDE EFFECTS: Registers are volatile: the CPU A and X registers may be
                                        (0074) ;               modified as may the Page Pointer registers!
                                        (0075) ;               In the large memory model currently only the page
                                        (0076) ;               pointer registers listed below are modified.  This does
                                        (0077) ;               not guarantee that in future implementations of this
                                        (0078) ;               function other page pointer registers will not be
                                        (0079) ;               modified.
                                        (0080) ;          
                                        (0081) ;               Page Pointer Registers Modified: 
                                        (0082) ;               CUR_PP
                                        (0083) ;
                                        (0084) _LoadConfig_modulio_adxl345:
                                        (0085)  LoadConfig_modulio_adxl345:
                                        (0086)     RAM_PROLOGUE RAM_USE_CLASS_4
                                        (0087) 
0361: 10       PUSH  X                  (0088) 	push	x
0362: 70 EF    AND   F,0xEF             
                                        (0089)     M8C_SetBank0                    ; Force bank 0
0364: 50 00    MOV   A,0x0              (0090)     mov     a, 0                    ; Specify bank 0
0366: 67       ASR   A                  (0091)     asr     a                       ; Store in carry flag
                                        (0092)                                     ; Load bank 0 table:
0367: 50 01    MOV   A,0x1              (0093)     mov     A, >LoadConfigTBL_modulio_adxl345_Bank0
0369: 57 C1    MOV   X,0xC1             (0094)     mov     X, <LoadConfigTBL_modulio_adxl345_Bank0
036B: 7C 03 7C LCALL 0x037C             (0095)     lcall   LoadConfig              ; Load the bank 0 values
                                        (0096) 
036E: 50 01    MOV   A,0x1              (0097)     mov     a, 1                    ; Specify bank 1
0370: 67       ASR   A                  (0098)     asr     a                       ; Store in carry flag
                                        (0099)                                     ; Load bank 1 table:
0371: 50 02    MOV   A,0x2              (0100)     mov     A, >LoadConfigTBL_modulio_adxl345_Bank1
0373: 57 10    MOV   X,0x10             (0101)     mov     X, <LoadConfigTBL_modulio_adxl345_Bank1
0375: 7C 03 7C LCALL 0x037C             (0102)     lcall   LoadConfig              ; Load the bank 1 values
0378: 70 EF    AND   F,0xEF             
                                        (0103) 
                                        (0104)     M8C_SetBank0                    ; Force return to bank 0
037A: 20       POP   X                  (0105) 	pop		x
                                        (0106) 
                                        (0107)     RAM_EPILOGUE RAM_USE_CLASS_4
037B: 7F       RET                      (0108)     ret
                                        (0109) 
                                        (0110) 
                                        (0111) 
                                        (0112) 
                                        (0113) ;---------------------------------------------------------------------------
                                        (0114) ; LoadConfig - Set IO registers as specified in ROM table of (address,value)
                                        (0115) ;              pairs. Terminate on address=0xFF.
                                        (0116) ;
                                        (0117) ;  INPUTS:  [A,X] points to the table to be loaded
                                        (0118) ;           Flag Register Carry bit encodes the Register Bank
                                        (0119) ;           (Carry=0 => Bank 0; Carry=1 => Bank 1)
                                        (0120) ;
                                        (0121) ;  RETURNS: nothing.
                                        (0122) ;
                                        (0123) ;  STACK FRAME:  X-4 I/O Bank 0/1 indicator
                                        (0124) ;                X-3 Temporary store for register address
                                        (0125) ;                X-2 LSB of config table address
                                        (0126) ;                X-1 MSB of config table address
                                        (0127) ;
                                        (0128) LoadConfig:
                                        (0129)     RAM_PROLOGUE RAM_USE_CLASS_2
037C: 38 02    ADD   SP,0x2             (0130)     add     SP, 2                   ; Set up local vars
037E: 10       PUSH  X                  (0131)     push    X                       ; Save config table address on stack
037F: 08       PUSH  A                  (0132)     push    A
0380: 4F       MOV   X,SP               (0133)     mov     X, SP
0381: 56 FC 00 MOV   [X-4],0x0          (0134)     mov     [X-4], 0                ; Set default Destination to Bank 0
0384: D0 04    JNC   0x0389             (0135)     jnc     .BankSelectSaved        ; Carry says Bank 0 is OK
0386: 56 FC 01 MOV   [X-4],0x1          (0136)     mov     [X-4], 1                ; No Carry: default to Bank 1
                                        (0137) .BankSelectSaved:
0389: 18       POP   A                  (0138)     pop     A
038A: 20       POP   X                  (0139)     pop     X
038B: 70 EF    AND   F,0xEF             
038D: 62 E3 00 MOV   REG[0xE3],0x0      
                                        (0140) 
                                        (0141) LoadConfigLp:
                                        (0142)     M8C_SetBank0                    ; Switch to bank 0
                                        (0143)     M8C_ClearWDT                    ; Clear the watchdog for long inits
0390: 10       PUSH  X                  (0144)     push    X                       ; Preserve the config table address
0391: 08       PUSH  A                  (0145)     push    A
0392: 28       ROMX                     (0146)     romx                            ; Load register address from table
0393: 39 FF    CMP   A,0xFF             (0147)     cmp     A, END_CONFIG_TABLE     ; End of table?
0395: A0 1F    JZ    0x03B5             (0148)     jz      EndLoadConfig           ;   Yes, go wrap it up
0397: 4F       MOV   X,SP               (0149)     mov     X, SP                   ;
0398: 48 FC 01 TST   [X-4],0x1          (0150)     tst     [X-4], 1                ; Loading IO Bank 1?
039B: A0 03    JZ    0x039F             (0151)     jz      .IOBankNowSet           ;    No, Bank 0 is fine
039D: 71 10    OR    F,0x10             
                                        (0152)     M8C_SetBank1                    ;   Yes, switch to Bank 1
                                        (0153) .IOBankNowSet:
039F: 54 FD    MOV   [X-3],A            (0154)     mov     [X-3], A                ; Stash the register address
03A1: 18       POP   A                  (0155)     pop     A                       ; Retrieve the table address
03A2: 20       POP   X                  (0156)     pop     X
03A3: 75       INC   X                  (0157)     inc     X                       ; Advance to the data byte
03A4: 09 00    ADC   A,0x0              (0158)     adc     A, 0
03A6: 10       PUSH  X                  (0159)     push    X                       ; Save the config table address again
03A7: 08       PUSH  A                  (0160)     push    A
03A8: 28       ROMX                     (0161)     romx                            ; load config data from the table
03A9: 4F       MOV   X,SP               (0162)     mov     X, SP                   ; retrieve the register address
03AA: 59 FD    MOV   X,[X-3]            (0163)     mov     X, [X-3]
03AC: 61 00    MOV   REG[X+0x0],A       (0164)     mov     reg[X], A               ; Configure the register
03AE: 18       POP   A                  (0165)     pop     A                       ; retrieve the table address
03AF: 20       POP   X                  (0166)     pop     X
03B0: 75       INC   X                  (0167)     inc     X                       ; advance to next table entry
03B1: 09 00    ADC   A,0x0              (0168)     adc     A, 0
03B3: 8F D7    JMP   0x038B             (0169)     jmp     LoadConfigLp            ; loop to configure another register
                                        (0170) EndLoadConfig:
03B5: 38 FC    ADD   SP,0xFC            (0171)     add     SP, -4
03B7: 70 3F    AND   F,0x3F             
03B9: 71 C0    OR    F,0xC0             
                                        (0172)     RAM_EPILOGUE RAM_USE_CLASS_2
03BB: 7F       RET                      (0173)     ret
                                        (0174) 
                                        (0175) AREA InterruptRAM(ram, rel)
                                        (0176) 
                                        (0177) NO_SHADOW:
                                        (0178) _NO_SHADOW:
FILE: lib\i2chw_1rsrcinits.asm          (0001) ;;*****************************************************************************
                                        (0002) ;;*****************************************************************************
                                        (0003) ;;  FILENAME: I2CHW_1.asm
                                        (0004) ;;  Version: 2.00, Updated on 2015/3/4 at 22:26:25
                                        (0005) ;;  Generated by PSoC Designer 5.4.3191
                                        (0006) ;;
                                        (0007) ;;  DESCRIPTION: I2Cs User Module software implementation file
                                        (0008) ;;
                                        (0009) ;;  NOTE: User Module APIs conform to the fastcall16 convention for marshalling
                                        (0010) ;;        arguments and observe the associated "Registers are volatile" policy.
                                        (0011) ;;        This means it is the caller's responsibility to preserve any values
                                        (0012) ;;        in the X and A registers that are still needed after the API functions
                                        (0013) ;;        returns. For Large Memory Model devices it is also the caller's 
                                        (0014) ;;        responsibility to perserve any value in the CUR_PP, IDX_PP, MVR_PP and 
                                        (0015) ;;        MVW_PP registers. Even though some of these registers may not be modified
                                        (0016) ;;        now, there is no guarantee that will remain the case in future releases.
                                        (0017) ;;-----------------------------------------------------------------------------
                                        (0018) ;;  Copyright (c) Cypress Semiconductor 2015. All Rights Reserved.
                                        (0019) ;;*****************************************************************************
                                        (0020) ;;*****************************************************************************
                                        (0021) 
                                        (0022) include "m8c.inc"
                                        (0023) include "memory.inc"
                                        (0024) include "I2CHW_1Common.inc"
                                        (0025) include "PSoCGPIOINT.inc"
                                        (0026) include "PSoCAPI.inc"
                                        (0027) 
                                        (0028) ;-----------------------------------------------
                                        (0029) ; include instance specific register definitions
                                        (0030) ;-----------------------------------------------
                                        (0031) 
                                        (0032) ;-----------------------------------------------
                                        (0033) ;  Global Symbols
                                        (0034) ;-----------------------------------------------
                                        (0035) ;-------------------------------------------------------------------
                                        (0036) ;  Declare the functions global for both assembler and C compiler.
                                        (0037) ;
                                        (0038) ;  Note that there are two names for each API. First name is
                                        (0039) ;  assembler reference. Name with underscore is name refence for
                                        (0040) ;  C compiler.  Calling function in C source code does not require
                                        (0041) ;  the underscore.
                                        (0042) ;-------------------------------------------------------------------
                                        (0043) 
                                        (0044) export    I2CHW_1_ResumeInt
                                        (0045) export   _I2CHW_1_ResumeInt
                                        (0046) export    I2CHW_1_EnableInt
                                        (0047) export   _I2CHW_1_EnableInt
                                        (0048) export    I2CHW_1_ClearInt
                                        (0049) export   _I2CHW_1_ClearInt
                                        (0050) IF (I2CHW_1_MUM_SEL & (I2CHW_1_SLAVE | I2CHW_1_MMS))
                                        (0051) export    I2CHW_1_EnableSlave
                                        (0052) export   _I2CHW_1_EnableSlave
                                        (0053) ENDIF
                                        (0054) IF (I2CHW_1_MUM_SEL & (I2CHW_1_MSTR | I2CHW_1_MMS))
                                        (0055) export    I2CHW_1_EnableMstr
                                        (0056) export   _I2CHW_1_EnableMstr
                                        (0057) ENDIF
                                        (0058) export    I2CHW_1_Start
                                        (0059) export   _I2CHW_1_Start
                                        (0060) export    I2CHW_1_DisableInt
                                        (0061) export   _I2CHW_1_DisableInt
                                        (0062) IF (I2CHW_1_MUM_SEL & (I2CHW_1_SLAVE | I2CHW_1_MMS))
                                        (0063) export    I2CHW_1_DisableSlave
                                        (0064) export   _I2CHW_1_DisableSlave
                                        (0065) ENDIF
                                        (0066) IF (I2CHW_1_MUM_SEL & (I2CHW_1_MSTR | I2CHW_1_MMS))
                                        (0067) export    I2CHW_1_DisableMstr
                                        (0068) export   _I2CHW_1_DisableMstr
                                        (0069) ENDIF
                                        (0070) export    I2CHW_1_Stop
                                        (0071) export   _I2CHW_1_Stop
                                        (0072) 
                                        (0073) IF (I2CHW_1_MUM_SEL & (I2CHW_1_SLAVE | I2CHW_1_MMS))
                                        (0074)  IF (I2CHW_1_CY8C22x45)
                                        (0075) export    I2CHW_1_EnableHWAddrCheck
                                        (0076) export   _I2CHW_1_EnableHWAddrCheck
                                        (0077) export    I2CHW_1_DisableHWAddrCheck
                                        (0078) export   _I2CHW_1_DisableHWAddrCheck
                                        (0079)  ENDIF
                                        (0080) ENDIF
                                        (0081) 
                                        (0082) AREA UserModules (ROM, REL)
                                        (0083) 
                                        (0084) .SECTION
                                        (0085) 
                                        (0086) ;-----------------------------------------------------------------------------
                                        (0087) ;  FUNCTION NAME: I2CHW_1_Start
                                        (0088) ;
                                        (0089) ;  DESCRIPTION:
                                        (0090) ;   Initialize the I2CHW_1 I2C bus interface.
                                        (0091) ;
                                        (0092) ;-----------------------------------------------------------------------------
                                        (0093) ;
                                        (0094) ;  ARGUMENTS:
                                        (0095) ;
                                        (0096) ;  RETURNS: none
                                        (0097) ;
                                        (0098) ;  SIDE EFFECTS:
                                        (0099) ;    The A and X registers may be modified by this or future implementations
                                        (0100) ;    of this function.  The same is true for all RAM page pointer registers in
                                        (0101) ;    the Large Memory Model.  When necessary, it is the calling function's
                                        (0102) ;    responsibility to perserve their values across calls to fastcall16 
                                        (0103) ;    functions.
                                        (0104) ;          
                                        (0105)  I2CHW_1_Start:
                                        (0106) _I2CHW_1_Start:
                                        (0107)     RAM_PROLOGUE RAM_USE_CLASS_1
                                        (0108) IF (I2CHW_1_MUM_SEL & (I2CHW_1_SLAVE | I2CHW_1_MMS))
                                        (0109)  IF (I2CHW_1_CY8C22x45)
                                        (0110)    M8C_SetBank1
                                        (0111)    mov   reg[I2CHW_1_ADDR], I2CHW_1_SLAVE_ADDR;I2CHW_1_HW_ADDR_EN
                                        (0112)    M8C_SetBank0
                                        (0113)  ENDIF
                                        (0114) ENDIF
                                        (0115)     RAM_EPILOGUE RAM_USE_CLASS_1
03BC: 7F       RET                      (0116)     ret
                                        (0117) .ENDSECTION
                                        (0118) 
                                        (0119) .SECTION
                                        (0120) ;-----------------------------------------------------------------------------
                                        (0121) ;  FUNCTION NAME: I2CHW_1_ResumeInt
                                        (0122) ;
                                        (0123) ;  DESCRIPTION:
                                        (0124) ;     reEnables SDA interrupt allowing start condition detection. 
                                        (0125) ;     Skips clearing INT_CLR3 by entering the EnableInt at ResumeIntEntry:.
                                        (0126) ;     Remember to call the global interrupt enable function by using
                                        (0127) ;     the macro: M8C_EnableGInt.
                                        (0128) ;-----------------------------------------------------------------------------
                                        (0129) ;  ARGUMENTS: none
                                        (0130) ;
                                        (0131) ;  RETURNS: none
                                        (0132) ;
                                        (0133) ;  SIDE EFFECTS:
                                        (0134) ;    The A and X registers may be modified by this or future implementations
                                        (0135) ;    of this function.  The same is true for all RAM page pointer registers in
                                        (0136) ;    the Large Memory Model.  When necessary, it is the calling function's
                                        (0137) ;    responsibility to perserve their values across calls to fastcall16 
                                        (0138) ;    functions.
                                        (0139) ;-----------------------------------------------------------------------------
                                        (0140)  I2CHW_1_ResumeInt:
                                        (0141) _I2CHW_1_ResumeInt:
                                        (0142)     RAM_PROLOGUE RAM_USE_CLASS_1
03BD: 80 04    JMP   0x03C2             (0143)     jmp ResumeIntEntry
03BF: 62 DD FE MOV   REG[0xDD],0xFE     
03C2: 43 DE 01 OR    REG[0xDE],0x1      
                                        (0144)     
                                        (0145) ;-----------------------------------------------------------------------------
                                        (0146) ;  FUNCTION NAME: I2CHW_1_EnableInt
                                        (0147) ;
                                        (0148) ;  DESCRIPTION:
                                        (0149) ;     Enables SDA interrupt allowing start condition detection. Remember to call the
                                        (0150) ;     global interrupt enable function by using the macro: M8C_EnableGInt.
                                        (0151) ;
                                        (0152) ;-----------------------------------------------------------------------------
                                        (0153) ;
                                        (0154) ;  ARGUMENTS: none
                                        (0155) ;
                                        (0156) ;  RETURNS: none
                                        (0157) ;
                                        (0158) ;  SIDE EFFECTS:
                                        (0159) ;    The A and X registers may be modified by this or future implementations
                                        (0160) ;    of this function.  The same is true for all RAM page pointer registers in
                                        (0161) ;    the Large Memory Model.  When necessary, it is the calling function's
                                        (0162) ;    responsibility to perserve their values across calls to fastcall16 
                                        (0163) ;    functions.
                                        (0164) ;-----------------------------------------------------------------------------
                                        (0165)  I2CHW_1_EnableInt:
                                        (0166) _I2CHW_1_EnableInt:
                                        (0167)     RAM_PROLOGUE RAM_USE_CLASS_1
                                        (0168)     ;first clear any pending interrupts
                                        (0169)     M8C_ClearIntFlag INT_CLR3, I2CHW_1_INT_MASK
                                        (0170) ResumeIntEntry:
                                        (0171)     M8C_EnableIntMask I2CHW_1_INT_REG, I2CHW_1_INT_MASK
                                        (0172)     RAM_EPILOGUE RAM_USE_CLASS_1
03C5: 7F       RET                      (0173)     ret
03C6: 62 DD FE MOV   REG[0xDD],0xFE     
                                        (0174) 
                                        (0175) .ENDSECTION
                                        (0176) 
                                        (0177) .SECTION
                                        (0178) ;-----------------------------------------------------------------------------
                                        (0179) ;  FUNCTION NAME: I2CHW_1_ClearInt
                                        (0180) ;
                                        (0181) ;  DESCRIPTION:
                                        (0182) ;     Clears only the I2C interrupt in the INT_CLR3 register.
                                        (0183) ;
                                        (0184) ;-----------------------------------------------------------------------------
                                        (0185) ;
                                        (0186) ;  ARGUMENTS: none
                                        (0187) ;
                                        (0188) ;  RETURNS: none
                                        (0189) ;
                                        (0190) ;  SIDE EFFECTS:
                                        (0191) ;    The A and X registers may be modified by this or future implementations
                                        (0192) ;    of this function.  The same is true for all RAM page pointer registers in
                                        (0193) ;    the Large Memory Model.  When necessary, it is the calling function's
                                        (0194) ;    responsibility to perserve their values across calls to fastcall16 
                                        (0195) ;    functions.
                                        (0196) ;          
                                        (0197)  I2CHW_1_ClearInt:
                                        (0198) _I2CHW_1_ClearInt:
                                        (0199)     RAM_PROLOGUE RAM_USE_CLASS_1
                                        (0200)     M8C_ClearIntFlag INT_CLR3, I2CHW_1_INT_MASK
                                        (0201)     RAM_EPILOGUE RAM_USE_CLASS_1
03C9: 7F       RET                      (0202)     ret
03CA: 62 D0 00 MOV   REG[0xD0],0x0      
                                        (0203)     
                                        (0204) .ENDSECTION
                                        (0205) 
                                        (0206) IF (I2CHW_1_MUM_SEL & (I2CHW_1_MSTR | I2CHW_1_MMS))	
                                        (0207) .SECTION
                                        (0208) ;-----------------------------------------------------------------------------
                                        (0209) ;  FUNCTION NAME: I2CHW_1_EnableMstr
                                        (0210) ;
                                        (0211) ;  DESCRIPTION:
                                        (0212) ;     Enables SDA interrupt allowing start condition detection. Remember to call the
                                        (0213) ;     global interrupt enable function by using the macro: M8C_EnableGInt.
                                        (0214) ;
                                        (0215) ;-----------------------------------------------------------------------------
                                        (0216) ;
                                        (0217) ;  ARGUMENTS: none
                                        (0218) ;
                                        (0219) ;  RETURNS: none
                                        (0220) ;
                                        (0221) ;  SIDE EFFECTS:
                                        (0222) ;    The A and X registers may be modified by this or future implementations
                                        (0223) ;    of this function.  The same is true for all RAM page pointer registers in
                                        (0224) ;    the Large Memory Model.  When necessary, it is the calling function's
                                        (0225) ;    responsibility to perserve their values across calls to fastcall16 
                                        (0226) ;    functions.
                                        (0227) ;          
                                        (0228)  I2CHW_1_EnableMstr:
                                        (0229) _I2CHW_1_EnableMstr:
                                        (0230)     RAM_PROLOGUE RAM_USE_CLASS_1
                                        (0231) 	;;CDT 28399
                                        (0232) 	RAM_SETPAGE_CUR >I2CHW_1_bStatus
03CD: 26 00 7F AND   [0x0],0x7F         (0233) 	and [I2CHW_1_bStatus], ~0x80 ;; ~I2CHW_1_ISR_ACTIVE
03D0: 62 D0 00 MOV   REG[0xD0],0x0      
                                        (0234) 	RAM_SETPAGE_CUR >I2CHW_1_RsrcStatus
03D3: 26 02 7F AND   [0x2],0x7F         (0235)     and    [I2CHW_1_RsrcStatus], ~0x80;;~I2CHW_ISR_ACTIVE        ; Make sure internal control variables weren't corrupted previous to start.
03D6: 43 D6 02 OR    REG[0xD6],0x2      
                                        (0236)     BitSetI2CHW_1_CFG I2C_M_EN                                       ;Enable SDA interupt
                                        (0237)     RAM_EPILOGUE RAM_USE_CLASS_1
03D9: 7F       RET                      (0238)     ret
03DA: 41 DE FE AND   REG[0xDE],0xFE     
                                        (0239) 
                                        (0240) .ENDSECTION
                                        (0241) ENDIF
                                        (0242) 
                                        (0243) IF (I2CHW_1_MUM_SEL & (I2CHW_1_SLAVE | I2CHW_1_MMS))
                                        (0244) .SECTION
                                        (0245) ;-----------------------------------------------------------------------------
                                        (0246) ;  FUNCTION NAME: I2CHW_1_EnableSlave
                                        (0247) ;
                                        (0248) ;  DESCRIPTION:
                                        (0249) ;     Enables SDA interrupt allowing start condition detection. Remember to call the
                                        (0250) ;     global interrupt enable function by using the macro: M8C_EnableGInt.
                                        (0251) ;
                                        (0252) ;-----------------------------------------------------------------------------
                                        (0253) ;
                                        (0254) ;  ARGUMENTS: none
                                        (0255) ;
                                        (0256) ;  RETURNS: none
                                        (0257) ;
                                        (0258) ;  SIDE EFFECTS:
                                        (0259) ;    The A and X registers may be modified by this or future implementations
                                        (0260) ;    of this function.  The same is true for all RAM page pointer registers in
                                        (0261) ;    the Large Memory Model.  When necessary, it is the calling function's
                                        (0262) ;    responsibility to perserve their values across calls to fastcall16 
                                        (0263) ;    functions.
                                        (0264) ;          
                                        (0265)  I2CHW_1_EnableSlave:
                                        (0266) _I2CHW_1_EnableSlave:
                                        (0267)     RAM_PROLOGUE RAM_USE_CLASS_1
                                        (0268)     
                                        (0269)     M8C_SetBank1 ;The SDA and SCL pins are setting to Hi-z drive mode
                                        (0270)     and reg[I2CHW_1SDA_DriveMode_0_ADDR],~(I2CHW_1SDA_MASK|I2CHW_1SCL_MASK)
                                        (0271)     or  reg[I2CHW_1SDA_DriveMode_1_ADDR], (I2CHW_1SDA_MASK|I2CHW_1SCL_MASK)
                                        (0272)     M8C_SetBank0
                                        (0273)     or  reg[I2CHW_1SDA_DriveMode_2_ADDR], (I2CHW_1SDA_MASK|I2CHW_1SCL_MASK)
                                        (0274)    
                                        (0275)     BitSetI2CHW_1_CFG I2C_S_EN                                       ;Enable SDA interrupt
                                        (0276)     nop
                                        (0277)     nop
                                        (0278)     nop
                                        (0279)     nop
                                        (0280)     nop
                                        (0281)    
                                        (0282)     M8C_SetBank1 ;The SDA and SCL pins are restored to Open Drain Low drive mode
                                        (0283)     or reg[I2CHW_1SDA_DriveMode_0_ADDR], (I2CHW_1SDA_MASK|I2CHW_1SCL_MASK)
                                        (0284)     or reg[I2CHW_1SDA_DriveMode_1_ADDR], (I2CHW_1SDA_MASK|I2CHW_1SCL_MASK)
                                        (0285)     M8C_SetBank0
                                        (0286)     or reg[I2CHW_1SDA_DriveMode_2_ADDR], (I2CHW_1SDA_MASK|I2CHW_1SCL_MASK)
                                        (0287)     
                                        (0288)     RAM_EPILOGUE RAM_USE_CLASS_1
                                        (0289)     ret
                                        (0290) 
                                        (0291) .ENDSECTION
                                        (0292) ENDIF
                                        (0293) 
                                        (0294) .SECTION
                                        (0295) ;-----------------------------------------------------------------------------
                                        (0296) ;  FUNCTION NAME: I2CHW_1_DisableInt
                                        (0297) ;  FUNCTION NAME: I2CHW_1_Stop
                                        (0298) ;
                                        (0299) ;  DESCRIPTION:
                                        (0300) ;     Disables I2CHW_1 slave by disabling SDA interrupt
                                        (0301) ;
                                        (0302) ;-----------------------------------------------------------------------------
                                        (0303) ;
                                        (0304) ;  ARGUMENTS: none
                                        (0305) ;
                                        (0306) ;  RETURNS: none
                                        (0307) ;
                                        (0308) ;  SIDE EFFECTS:
                                        (0309) ;    The A and X registers may be modified by this or future implementations
                                        (0310) ;    of this function.  The same is true for all RAM page pointer registers in
                                        (0311) ;    the Large Memory Model.  When necessary, it is the calling function's
                                        (0312) ;    responsibility to perserve their values across calls to fastcall16 
                                        (0313) ;    functions.
                                        (0314) ;          
                                        (0315)  I2CHW_1_DisableInt:
                                        (0316) _I2CHW_1_DisableInt:
                                        (0317)  I2CHW_1_Stop:
                                        (0318) _I2CHW_1_Stop:
                                        (0319)     RAM_PROLOGUE RAM_USE_CLASS_1
                                        (0320)     M8C_DisableIntMask I2CHW_1_INT_REG, I2CHW_1_INT_MASK
                                        (0321)     RAM_EPILOGUE RAM_USE_CLASS_1
03DD: 7F       RET                      (0322)     ret
03DE: 41 D6 FD AND   REG[0xD6],0xFD     
                                        (0323) 
                                        (0324) .ENDSECTION
                                        (0325) 
                                        (0326) IF (I2CHW_1_MUM_SEL & (I2CHW_1_SLAVE | I2CHW_1_MMS))
                                        (0327) .SECTION
                                        (0328) ;-----------------------------------------------------------------------------
                                        (0329) ;  FUNCTION NAME: I2CHW_1_DisableSlave
                                        (0330) ;
                                        (0331) ;  DESCRIPTION:
                                        (0332) ;     Disables I2CHW_1 slave by disabling SDA interrupt
                                        (0333) ;
                                        (0334) ;-----------------------------------------------------------------------------
                                        (0335) ;
                                        (0336) ;  ARGUMENTS: none
                                        (0337) ;
                                        (0338) ;  RETURNS: none
                                        (0339) ;
                                        (0340) ;  SIDE EFFECTS:
                                        (0341) ;    The A and X registers may be modified by this or future implementations
                                        (0342) ;    of this function.  The same is true for all RAM page pointer registers in
                                        (0343) ;    the Large Memory Model.  When necessary, it is the calling function's
                                        (0344) ;    responsibility to perserve their values across calls to fastcall16 
                                        (0345) ;    functions.
                                        (0346) ;          
                                        (0347)  I2CHW_1_DisableSlave:
                                        (0348) _I2CHW_1_DisableSlave:
                                        (0349)     RAM_PROLOGUE RAM_USE_CLASS_1
                                        (0350)     BitClrI2CHW_1_CFG I2C_S_EN                                       ;Disable the Slave
                                        (0351)     RAM_EPILOGUE RAM_USE_CLASS_1
                                        (0352)     ret
                                        (0353) 
                                        (0354) .ENDSECTION
                                        (0355) ENDIF
                                        (0356) 
                                        (0357) IF (I2CHW_1_MUM_SEL & (I2CHW_1_MSTR | I2CHW_1_MMS))
                                        (0358) .SECTION
                                        (0359) ;-----------------------------------------------------------------------------
                                        (0360) ;  FUNCTION NAME: I2CHW_1_DisableMstr
                                        (0361) ;
                                        (0362) ;  DESCRIPTION:
                                        (0363) ;     Disables I2CHW_1 slave by disabling SDA interrupt
                                        (0364) ;
                                        (0365) ;-----------------------------------------------------------------------------
                                        (0366) ;
                                        (0367) ;  ARGUMENTS: none
                                        (0368) ;
                                        (0369) ;  RETURNS: none
                                        (0370) ;
                                        (0371) ;  SIDE EFFECTS:
                                        (0372) ;    The A and X registers may be modified by this or future implementations
                                        (0373) ;    of this function.  The same is true for all RAM page pointer registers in
                                        (0374) ;    the Large Memory Model.  When necessary, it is the calling function's
                                        (0375) ;    responsibility to perserve their values across calls to fastcall16 
                                        (0376) ;    functions.
                                        (0377) ;          
                                        (0378)  I2CHW_1_DisableMstr:
                                        (0379) _I2CHW_1_DisableMstr:
                                        (0380)     RAM_PROLOGUE RAM_USE_CLASS_1
                                        (0381)     BitClrI2CHW_1_CFG I2C_M_EN                                       ;Disable the Master
                                        (0382)     RAM_EPILOGUE RAM_USE_CLASS_1
03E1: 7F       RET                      (0383)    ret
                                        (0384) 
                                        (0385) .ENDSECTION
                                        (0386) ENDIF
                                        (0387) 
                                        (0388) IF (I2CHW_1_MUM_SEL & (I2CHW_1_SLAVE | I2CHW_1_MMS))
                                        (0389)  IF (I2CHW_1_CY8C22x45)
                                        (0390)  .SECTION
                                        (0391) ;-----------------------------------------------------------------------------
                                        (0392) ;  FUNCTION NAME: void  I2CHW_1_EnableHWAddrCheck(void)
                                        (0393) ;
                                        (0394) ;  DESCRIPTION:
                                        (0395) ;   Set respective bit to engage the HardWare Address Recognition 
                                        (0396) ;   feature in I2C slave block.
                                        (0397) ;
                                        (0398) ;-----------------------------------------------------------------------------
                                        (0399) ;
                                        (0400) ;  ARGUMENTS: none
                                        (0401) ;
                                        (0402) ;  RETURNS: none
                                        (0403) ;
                                        (0404) ;  SIDE EFFECTS:
                                        (0405) ;    If the HardWare Address Recognition feature is enabled, the ROM registers reading does not work.
                                        (0406) ;    The HardWare Address Recognition feature should be disabled for using ROM registers.
                                        (0407) ;
                                        (0408) ;    The A and X registers may be modified by this or future implementations
                                        (0409) ;    of this function.  The same is true for all RAM page pointer registers in
                                        (0410) ;    the Large Memory Model.  When necessary, it is the calling function's
                                        (0411) ;    responsibility to perserve their values across calls to fastcall16 
                                        (0412) ;    functions.
                                        (0413) ;
                                        (0414)  I2CHW_1_EnableHWAddrCheck:
                                        (0415) _I2CHW_1_EnableHWAddrCheck:
                                        (0416)    RAM_PROLOGUE RAM_USE_CLASS_1
                                        (0417)    M8C_SetBank1
                                        (0418)    or    reg[I2CHW_1_ADDR], I2CHW_1_HW_ADDR_EN
                                        (0419)    M8C_SetBank0
                                        (0420)    RAM_EPILOGUE RAM_USE_CLASS_1
                                        (0421)    ret
                                        (0422) .ENDSECTION
                                        (0423) 
                                        (0424) .SECTION
                                        (0425) ;-----------------------------------------------------------------------------
                                        (0426) ;  FUNCTION NAME: void  I2CHW_1_DisableHWAddrCheck(void)
                                        (0427) ;
                                        (0428) ;  DESCRIPTION:
                                        (0429) ;   Clear respective bit to disengage the HardWare Address Recognition 
                                        (0430) ;   feature in I2C slave block.
                                        (0431) ;
                                        (0432) ;-----------------------------------------------------------------------------
                                        (0433) ;
                                        (0434) ;  ARGUMENTS: none
                                        (0435) ;
                                        (0436) ;  RETURNS: none
                                        (0437) ;
                                        (0438) ;  SIDE EFFECTS:
                                        (0439) ;    The A and X registers may be modified by this or future implementations
                                        (0440) ;    of this function.  The same is true for all RAM page pointer registers in
                                        (0441) ;    the Large Memory Model.  When necessary, it is the calling function's
                                        (0442) ;    responsibility to perserve their values across calls to fastcall16 
                                        (0443) ;    functions.
                                        (0444) ;
                                        (0445)  I2CHW_1_DisableHWAddrCheck:
                                        (0446) _I2CHW_1_DisableHWAddrCheck:
                                        (0447)    RAM_PROLOGUE RAM_USE_CLASS_1
                                        (0448)    M8C_SetBank1
                                        (0449)    and   reg[I2CHW_1_ADDR], ~I2CHW_1_HW_ADDR_EN
                                        (0450)    M8C_SetBank0
                                        (0451)    RAM_EPILOGUE RAM_USE_CLASS_1
                                        (0452)    ret
                                        (0453) .ENDSECTION
                                        (0454)  ENDIF
                                        (0455) ENDIF
                                        (0456) 
                                        (0457) ; End of File I2CHW_1.asm
FILE: lib\i2chw_1mstr.asm               (0001) ;;*****************************************************************************
                                        (0002) ;;*****************************************************************************
03E2: 62 D0 00 MOV   REG[0xD0],0x0      (0003) ;;  FILENAME: I2CHW_1MSTR.asm
                                        (0004) ;;   Version: 2.00, Updated on 2015/3/4 at 22:26:25
                                        (0005) ;;  Generated by PSoC Designer 5.4.3191
                                        (0006) ;;
                                        (0007) ;;  DESCRIPTION: <UMName> User Module software implementation file
                                        (0008) ;;
                                        (0009) ;;  NOTE: User Module APIs conform to the fastcall16 convention for marshalling
                                        (0010) ;;        arguments and observe the associated "Registers are volatile" policy.
                                        (0011) ;;        This means it is the caller's responsibility to preserve any values
                                        (0012) ;;        in the X and A registers that are still needed after the API functions
                                        (0013) ;;        returns. For Large Memory Model devices it is also the caller's 
                                        (0014) ;;        responsibility to perserve any value in the CUR_PP, IDX_PP, MVR_PP and 
                                        (0015) ;;        MVW_PP registers. Even though some of these registers may not be modified
                                        (0016) ;;        now, there is no guarantee that will remain the case in future releases.
                                        (0017) ;;-----------------------------------------------------------------------------
                                        (0018) ;;  Copyright (c) Cypress Semiconductor 2015. All Rights Reserved.
                                        (0019) ;;*****************************************************************************
                                        (0020) ;;*****************************************************************************
                                        (0021) 
                                        (0022) include "m8c.inc"
                                        (0023) include "memory.inc"
                                        (0024) include "I2CHW_1Common.inc"
                                        (0025) include "I2CHW_1Mstr.inc"
                                        (0026) 
                                        (0027) ;-----------------------------------------------
                                        (0028) ;  Global Symbols
                                        (0029) ;-----------------------------------------------
                                        (0030) 
                                        (0031) export   I2CHW_1_fSendRepeatStart
                                        (0032) export  _I2CHW_1_fSendRepeatStart
                                        (0033) export   I2CHW_1_fSendStart
                                        (0034) export  _I2CHW_1_fSendStart
                                        (0035) export   I2CHW_1_SendStop
                                        (0036) export  _I2CHW_1_SendStop
                                        (0037) ; export the following 3 functions for C-implementations large or small mem models 
                                        (0038) export  _I2CHW_1_fReadBytes
                                        (0039) export  _I2CHW_1_bWriteBytes
                                        (0040) export  _I2CHW_1_bWriteCBytes
                                        (0041) 
                                        (0042) export   I2CHW_1_fWrite
                                        (0043) export  _I2CHW_1_fWrite
                                        (0044) 
                                        (0045) export   I2CHW_1_bRead
                                        (0046) export  _I2CHW_1_bRead
                                        (0047) 
                                        (0048) export    I2CHW_1_bReadBusStatus
                                        (0049) export   _I2CHW_1_bReadBusStatus
                                        (0050) 
                                        (0051) 
                                        (0052) IF SYSTEM_SMALL_MEMORY_MODEL
                                        (0053) 
                                        (0054) export   I2CHW_1_fReadBytes
                                        (0055) export   I2CHW_1_bWriteBytes
                                        (0056) export   I2CHW_1_bWriteCBytes
                                        (0057) 
                                        (0058) ENDIF	 ;SYSTEM_SMALL_MEMORY_MODEL
                                        (0059) 
                                        (0060) ;-------------------------------------------------------------------
                                        (0061) ;  Declare the varables for both the assembler and C compiler.
                                        (0062) ;
                                        (0063) ;-------------------------------------------------------------------
                                        (0064) export  I2CHW_1_bStatus
                                        (0065) export _I2CHW_1_bStatus
                                        (0066) 
                                        (0067) ;-----------------------------------------------
                                        (0068) ; Variable Allocation
                                        (0069) ;-----------------------------------------------
                                        (0070) area InterruptRAM(RAM, REL, CON)
                                        (0071) 
                                        (0072) _I2CHW_1_bStatus:
                                        (0073)  I2CHW_1_bStatus:                      blk   1  ; Status during transfers
                                        (0074) 
                                        (0075) AREA UserModules (ROM, REL)
                                        (0076) ;-----------------------------------------------
                                        (0077) ;  EQUATES
                                        (0078) ;-----------------------------------------------
                                        (0079) I2CHW_1_SLAVE_ACKed:                   equ 0x01 ; This bit set if Slave ACKed Master
                                        (0080) I2CHW_1_SEND_ACK:                      equ 0x10 ; If this flag set, Master should send ACK
                                        (0081) 
                                        (0082) 
                                        (0083) .SECTION
                                        (0084) ;-----------------------------------------------------------------------------
                                        (0085) ;  FUNCTION NAME: I2CHW_1_fReadBytes
                                        (0086) ;
                                        (0087) ;  DESCRIPTION:
                                        (0088) ;       Read Multiple bytes from a slave.  Use the ISR to perform operation.
                                        (0089) ;-----------------------------------------------------------------------------
                                        (0090) ;
                                        (0091) ;  ARGUMENTS:
                                        (0092) ;  [SP-7]=> Mode flags that allow the programmer to set flags
                                        (0093) ;           to determine if:
                                        (0094) ;             0x01 => Use RepeatStart instead of Start
                                        (0095) ;             0x02 => Don't send Stop
                                        (0096) ;  [SP-6]=> Count of bytes to read.
                                        (0097) ;  [SP-5]=> MSB of Array address to put data in (ignorned for small mem model)
                                        (0098) ;  [SP-4]=> LSB of Array address to put data in 
                                        (0099) ;  [SP-3]=> Address of slave
                                        (0100) ;
                                        (0101) ;  RETURNS:       None
                                        (0102) ;
                                        (0103) ;  SIDE EFFECTS:
                                        (0104) ;    The A and X registers may be modified by this or future implementations
                                        (0105) ;    of this function.  The same is true for all RAM page pointer registers in
                                        (0106) ;    the Large Memory Model.  When necessary, it is the calling function's
                                        (0107) ;    responsibility to perserve their values across calls to fastcall16 
                                        (0108) ;    functions.
                                        (0109) ;          
                                        (0110) ;    Currently only the page pointer registers listed below are modified: 
                                        (0111) ;          CUR_PP
                                        (0112) ;
                                        (0113) ;  THEORY of OPERATION or PROCEDURE:
                                        (0114) ;    I2C and block must be operational.
                                        (0115) ;    This routine will enable the I2C interrupt!
                                        (0116) ;    If the I2CHW_ISR_ACTIVE indicates that the I2CHW_ISR is already running this routine will
                                        (0117) ;    pend on the ISR_ACTIVE bit until it can run
                                        (0118) ;
                                        (0119) ;-----------------------------------------------------------------------------
                                        (0120) IF	(TOOLCHAIN & HITECH)
                                        (0121) RxMode:         set  -7
                                        (0122) RxCnt:          set  -6
                                        (0123) RxArrayHI:      set  -5
                                        (0124) RxArrayLO:      set  -4
                                        (0125) RxSlaveAddr:    set  -3
                                        (0126) ELSE
                                        (0127) RxMode:         equ  -7
                                        (0128) RxCnt:          equ  -6
                                        (0129) RxArrayHI:      equ  -5
                                        (0130) RxArrayLO:      equ  -4
                                        (0131) RxSlaveAddr:    equ  -3
                                        (0132) ENDIF
                                        (0133) 
                                        (0134) _I2CHW_1_fReadBytes:			      
                                        (0135)     RAM_PROLOGUE RAM_USE_CLASS_4
                                        (0136)     RAM_PROLOGUE RAM_USE_CLASS_2
                                        (0137) 	RAM_SETPAGE_CUR >I2CHW_1_RsrcStatus
03E5: 4F       MOV   X,SP               (0138) 	mov   X, SP
                                        (0139) I2CMSCR_NotReady1:
03E6: 51 02    MOV   A,[0x2]            (0140)     mov    A, [I2CHW_1_RsrcStatus]                         ; test to see if previous command started ISR
03E8: 47 02 80 TST   [0x2],0x80         (0141)     tst    [I2CHW_1_RsrcStatus], I2CHW_ISR_ACTIVE
                                        (0142)     ;mov   A, reg[I2CHW_1_MSCR]                            ;read the mscr register to look for pending master operations
                                        (0143)     ;and   A, 0x0f                                           ;only look at the lower bits
                                        (0144)           ;For multi master operations, a pening start or restart
                                        (0145)           ;request might be OK, the master might be waiting to
                                        (0146)           ;acquire the bus from another master
03EB: BF FA    JNZ   0x03E6             (0147)     jnz   I2CMSCR_NotReady1
03ED: 2E 02 80 OR    [0x2],0x80         (0148)     or    [I2CHW_1_RsrcStatus], I2CHW_ISR_ACTIVE           ; flag set here and cleared by ISR
                                        (0149)     ;get the address from the parameters on the stack
03F0: 52 FD    MOV   A,[X-3]            (0150)     mov   A, [X + RxSlaveAddr]
03F2: 64       ASL   A                  (0151)     asl   A                                                ; Shift address to the left to make
                                        (0152)                                                            ; a complete byte with the R/W bit.
03F3: 29 01    OR    A,0x1              (0153)     or    A,0x01                                           ; OR the address with the Read bit.
03F5: 53 01    MOV   [0x1],A            (0154)     mov   [I2CHW_1_SlaveAddr], A                           ; preserve addr+r/w state for the ISR to use
03F7: 60 D8    MOV   REG[0xD8],A        (0155)     mov   reg[I2CHW_1_DR], A                               ; put the write addr into the I2C_DR reg
03F9: 55 00 00 MOV   [0x0],0x0          (0156)     mov   [I2CHW_1_bStatus],0x00                           ; Clear all flags
03FC: 52 F9    MOV   A,[X-7]            (0157)     mov   A, [X+RxMode]                                    ; place the RxMode in status so ISR can access it
03FE: 53 00    MOV   [0x0],A            (0158)     mov   [I2CHW_1_bStatus],A
                                        (0159)     ;
                                        (0160)     ;we must now initialize a read buffer using I2CHW_1_InitWrite
                                        (0161)     ;
0400: 10       PUSH  X                  (0162)     push   X                                               ;preserve since it's used later
0401: 52 FA    MOV   A,[X-6]            (0163)     mov    A, [X+RxCnt]                                    ;get the write buf size
0403: 08       PUSH  A                  (0164)     push   A
0404: 52 FB    MOV   A,[X-5]            (0165)     mov    A, [X+RxArrayHI]                                ;get the write addrHI
0406: 08       PUSH  A                  (0166)     push   A										   
0407: 52 FC    MOV   A,[X-4]            (0167)     mov    A, [X+RxArrayLO]							                         ;get the write addrLO
0409: 08       PUSH  A                  (0168)     push   A                                               ;this will be ignored
040A: 93 0C    CALL  _I2CHW_1_InitWrite (0169)     call  I2CHW_1_InitWrite                                ;sets the addr and byte count to write to
040C: 38 FD    ADD   SP,0xFD            (0170)     add    SP, -3
040E: 20       POP   X                  (0171)     pop    X                                               ;restore X to be used for the rest of this routine
                                        (0172)     
040F: 51 01    MOV   A,[0x1]            (0173)     mov   A,[I2CHW_1_SlaveAddr]
0411: 48 F9 01 TST   [X-7],0x1          (0174)     tst   [x+RxMode],I2CHW_1_RepStart
0414: B0 0A    JNZ   0x041F             (0175)     jnz   DoRestartRx
0416: 49 D7 01 TST   REG[0xD7],0x1      (0176)     tst   reg[I2CHW_1_SCR], I2C_BYTE_COMPL                 ; indicates the I2C bus is stalled
0419: B0 05    JNZ   0x041F             (0177)     jnz   DoRestartRx
041B: 91 2E    CALL  0x054B             (0178)     call  I2C_DoStart                                      ; Send a start and address.
041D: 80 03    JMP   0x0421             (0179)     jmp   CheckRxAck
                                        (0180) DoRestartRx:
041F: 90 93    CALL  0x04B4             (0181)     call  I2CHW_1_DoBufferRepeatStart                           ; Send a repeat start and address.
0421: 70 3F    AND   F,0x3F             
0423: 71 C0    OR    F,0xC0             
                                        (0182)         ;note that REPEATSTART can only be used if this master currently has control of the bus and is at the end
                                        (0183)         ; of or ending the current data transmission/reception.  This also requres that the software (this UM)
                                        (0184)         ; as a whole be able to detect that a stop has not been sent previously in this transmission.
                                        (0185) 
                                        (0186) CheckRxAck:                                                ; Test to see if Slave ACKed
                                        (0187)         ;nothing to do here, a start and address are being transmitted, wait for the ISR to pick up, when it
                                        (0188)         ;is finished.
                                        (0189) End_RD:
                                        (0190)     RAM_EPILOGUE RAM_USE_CLASS_2
                                        (0191)     RAM_EPILOGUE RAM_USE_CLASS_4
0425: 7F       RET                      (0192)     ret
0426: 62 D0 00 MOV   REG[0xD0],0x0      
                                        (0193) 
                                        (0194) .ENDSECTION
                                        (0195) 
                                        (0196) .SECTION
                                        (0197) ;-----------------------------------------------------------------------------
                                        (0198) ;  FUNCTION NAME: I2CHW_1_bWriteBytes
                                        (0199) ;
                                        (0200) ;  DESCRIPTION:
                                        (0201) ;    Write multiple data bits to slave device.
                                        (0202) ;
                                        (0203) ;-----------------------------------------------------------------------------
                                        (0204) ;
                                        (0205) ;  ARGUMENTS:
                                        (0206) ; [SP-7]=> Mode flags that allow the programmer to set flags
                                        (0207) ;          to determine if:
                                        (0208) ;              0x01 => Use RePeatStart instead of Start
                                        (0209) ;              0x02 => Don't send Stop
                                        (0210) ; [SP-6]=> Count of bytes to write.
                                        (0211) ; [SP-5]=> MSB of Array address to put data in (ignored small mem model).
                                        (0212) ; [SP-4]=> LSB of Array address to put data in.
                                        (0213) ; [SP-3]=> Address of slave
                                        (0214) ;
                                        (0215) ;
                                        (0216) ;  RETURNS:     None
                                        (0217) ;
                                        (0218) ;  SIDE EFFECTS:
                                        (0219) ;    The A and X registers may be modified by this or future implementations
                                        (0220) ;    of this function.  The same is true for all RAM page pointer registers in
                                        (0221) ;    the Large Memory Model.  When necessary, it is the calling function's
                                        (0222) ;    responsibility to perserve their values across calls to fastcall16 
                                        (0223) ;    functions.
                                        (0224) ;          
                                        (0225) ;    Currently only the page pointer registers listed below are modified: 
                                        (0226) ;          CUR_PP
                                        (0227) ;
                                        (0228) ;  THEORY of OPERATION or PROCEDURE:
                                        (0229) ;
                                        (0230) ;-----------------------------------------------------------------------------
                                        (0231) IF	(TOOLCHAIN & HITECH)
                                        (0232) TxMode:       set  -7
                                        (0233) TxByteCount:  set  -6
                                        (0234) TxArrayHI:    set  -5
                                        (0235) TxArrayLO:    set  -4
                                        (0236) TxSlaveAddr:  set  -3
                                        (0237) ELSE
                                        (0238) TxMode:       equ  -7
                                        (0239) TxByteCount:  equ  -6
                                        (0240) TxArrayHI:    equ  -5
                                        (0241) TxArrayLO:    equ  -4
                                        (0242) TxSlaveAddr:  equ  -3
                                        (0243) ENDIF
                                        (0244) 
                                        (0245) _I2CHW_1_bWriteBytes:
                                        (0246)     RAM_PROLOGUE RAM_USE_CLASS_4
                                        (0247)     RAM_PROLOGUE RAM_USE_CLASS_2
                                        (0248) 	RAM_SETPAGE_CUR >I2CHW_1_RsrcStatus
                                        (0249) 
0429: 4F       MOV   X,SP               (0250) 	mov   X, SP
                                        (0251) I2CMSCR_NotReady2:
042A: 51 02    MOV   A,[0x2]            (0252)     mov    A, [I2CHW_1_RsrcStatus]                         ; test to see if previous command started ISR
042C: 47 02 80 TST   [0x2],0x80         (0253)     tst    [I2CHW_1_RsrcStatus], I2CHW_ISR_ACTIVE
                                        (0254)     ;mov   A, reg[I2CHW_1_MSCR]                            ;read the mscr register to look for pending master operations
                                        (0255)     ;and   A, 0x0f                                           ;only look at the lower bits
                                        (0256)           ;For multi master operations, a pening start or restart
                                        (0257)           ;request might be OK, the master might be waiting to
                                        (0258)           ;acquire the bus from another master
042F: BF FA    JNZ   0x042A             (0259)     jnz   I2CMSCR_NotReady2
0431: 2E 02 80 OR    [0x2],0x80         (0260)     or    [I2CHW_1_RsrcStatus], I2CHW_ISR_ACTIVE           ; flag set here and cleared at end of ISR
0434: 52 FD    MOV   A,[X-3]            (0261)     mov   A, [X + TxSlaveAddr]
0436: 64       ASL   A                  (0262)     asl   A                                                ; Shift address to the left to make
                                        (0263)                                                            ; a complete byte with the R/W bit.
                                        (0264)                                                            ; The ASL takes care of clearing bit 0.
0437: 55 00 00 MOV   [0x0],0x0          (0265)     mov   [I2CHW_1_bStatus],0x00                           ; Clear all flags
043A: 53 01    MOV   [0x1],A            (0266)     mov   [I2CHW_1_SlaveAddr], A                           ; preserve addr+r/w state for the ISR to use
043C: 60 D8    MOV   REG[0xD8],A        (0267)     mov   reg[I2CHW_1_DR], A                               ; put the write addr into the I2C_DR reg
043E: 52 F9    MOV   A,[X-7]            (0268)     mov   A, [X+TxMode]                                    ; place the TxMode in status so ISR can access it
0440: 53 00    MOV   [0x0],A            (0269)     mov   [I2CHW_1_bStatus],A
                                        (0270)     ;
                                        (0271)     ;we must now initialize a read buffer using I2CHW_1_InitWrite
                                        (0272)     ;
0442: 10       PUSH  X                  (0273)         push   X                                                ;preserve since it's used later
0443: 77 FA    INC   [X-6]              (0274)         inc    [X+TxByteCount]                                 ;increase this by one since the init routine will decrement it by 1
                                        (0275) 
0445: 52 FA    MOV   A,[X-6]            (0276)         mov    A, [X+TxByteCount]                               ;get the write buf size
0447: 08       PUSH  A                  (0277)         push   A
0448: 52 FB    MOV   A,[X-5]            (0278)         mov    A, [X+TxArrayHI]                                 ;get the write buf addr
044A: 08       PUSH  A                  (0279)         push   A                                                                                            ;this will be ignored
044B: 52 FC    MOV   A,[X-4]            (0280)         mov    A, [X+TxArrayLO]                                 ;get the write buf addr
044D: 08       PUSH  A                  (0281)         push   A
044E: 93 06    CALL  _I2CHW_1_InitRamRead(0282)         call  I2CHW_1_InitRamRead                          ;sets the addr and byte count to write to
0450: 38 FD    ADD   SP,0xFD            (0283)         add SP, -3
0452: 20       POP   X                  (0284)         pop X                                                   ;restore X to be used for the rest of this routine
                                        (0285)     ;and  [I2CHW_1_RsrcStatus],~I2C_READFLASH              ;shouldn't be needed should have been taken care of in InitRamRead routine
                                        (0286) 
                                        (0287) 
0453: 51 01    MOV   A,[0x1]            (0288)     mov   A,[I2CHW_1_SlaveAddr]
0455: 48 F9 01 TST   [X-7],0x1          (0289)     tst   [x+TxMode],I2CHW_1_RepStart
0458: B0 0A    JNZ   0x0463             (0290)     jnz   DoRestartTx
045A: 49 D7 01 TST   REG[0xD7],0x1      (0291)     tst   reg[I2CHW_1_SCR], I2C_BYTE_COMPL                 ; indicates the I2C bus is stalled
045D: BF C1    JNZ   0x041F             (0292)     jnz   DoRestartRx
045F: 90 EA    CALL  0x054B             (0293)     call  I2C_DoStart                                      ; Send a start and address.
0461: 80 03    JMP   0x0465             (0294)     jmp   DoTxAck
                                        (0295) DoRestartTx:
0463: 90 4F    CALL  0x04B4             (0296)     call  I2CHW_1_DoBufferRepeatStart                           ; Send a repeat start and address.
0465: 70 3F    AND   F,0x3F             
0467: 71 C0    OR    F,0xC0             
                                        (0297) DoTxAck:
                                        (0298) 
                                        (0299) 
                                        (0300) WriteSlaveAck:
                                        (0301)     RAM_EPILOGUE RAM_USE_CLASS_2
                                        (0302) 	RAM_EPILOGUE RAM_USE_CLASS_4
0469: 7F       RET                      (0303)     ret
046A: 62 D0 00 MOV   REG[0xD0],0x0      
                                        (0304) 
                                        (0305) .ENDSECTION
                                        (0306) 
                                        (0307) .SECTION
                                        (0308) ;-----------------------------------------------------------------------------
                                        (0309) ;  FUNCTION NAME: I2CHW_1_bWriteCBytes
                                        (0310) ;
                                        (0311) ;  DESCRIPTION:
                                        (0312) ;    Write multiple data bits to slave device from ROM
                                        (0313) ;
                                        (0314) ;-----------------------------------------------------------------------------
                                        (0315) ;
                                        (0316) ;  ARGUMENTS:
                                        (0317) ;  [SP-7]=> Mode flags that allow the programmer to set flags
                                        (0318) ;            to determine if:
                                        (0319) ;               0x01 => Use RepeatStart instead of Start
                                        (0320) ;               0x02 => Don't send Stop
                                        (0321) ;  [SP-6]=> Count of bytes to write.
                                        (0322) ;  [SP-5]=> MSB of ROM Array address to get data from
                                        (0323) ;  [SP-4]=> LSB of ROM Array address to get data from.
                                        (0324) ;  [SP-3]=> Address of slave
                                        (0325) ;
                                        (0326) ;  RETURNS:
                                        (0327) ;    None
                                        (0328) ;
                                        (0329) ;  SIDE EFFECTS:
                                        (0330) ;    The A and X registers may be modified by this or future implementations
                                        (0331) ;    of this function.  The same is true for all RAM page pointer registers in
                                        (0332) ;    the Large Memory Model.  When necessary, it is the calling function's
                                        (0333) ;    responsibility to perserve their values across calls to fastcall16 
                                        (0334) ;    functions.
                                        (0335) ;          
                                        (0336) ;    Currently only the page pointer registers listed below are modified: 
                                        (0337) ;          CUR_PP
                                        (0338) ;
                                        (0339) ;  THEORY of OPERATION or PROCEDURE:
                                        (0340) ;
                                        (0341) ;-----------------------------------------------------------------------------
                                        (0342) IF	(TOOLCHAIN & HITECH)
                                        (0343) TxCMode:       set  -7
                                        (0344) TxCByteCount:  set  -6
                                        (0345) TxCArrayMSB:   set  -5
                                        (0346) TxCArrayLSB:   set  -4
                                        (0347) ;TxSlaveAddr:  set  -3	  ;defined above this line if for reference only
                                        (0348) ELSE
                                        (0349) TxCMode:       equ  -7
                                        (0350) TxCByteCount:  equ  -6
                                        (0351) TxCArrayMSB:   equ  -5
                                        (0352) TxCArrayLSB:   equ  -4
                                        (0353) ;TxSlaveAddr:  equ  -3	  ;defined above this line if for reference only
                                        (0354) ENDIF
                                        (0355) 
                                        (0356) _I2CHW_1_bWriteCBytes:
                                        (0357)     RAM_PROLOGUE RAM_USE_CLASS_4
                                        (0358) 	RAM_PROLOGUE RAM_USE_CLASS_2
                                        (0359) 	RAM_SETPAGE_CUR >I2CHW_1_RsrcStatus
046D: 4F       MOV   X,SP               (0360) 	mov   X, SP
                                        (0361) I2CMSCR_NotReady3:
046E: 51 02    MOV   A,[0x2]            (0362)         mov    A, [I2CHW_1_RsrcStatus]                     ; test to see if previous command started ISR
0470: 47 02 80 TST   [0x2],0x80         (0363)         tst    [I2CHW_1_RsrcStatus], I2CHW_ISR_ACTIVE
                                        (0364)     ;mov   A, reg[I2CHW_1_MSCR]                            ;read the mscr register to look for pending master operations
                                        (0365)     ;and   A, 0x0f                                           ;only look at the lower bits
                                        (0366)           ;For multi master operations, a pening start or restart
                                        (0367)           ;request might be OK, the master might be waiting to
                                        (0368)           ;acquire the bus from another master
0473: BF FA    JNZ   0x046E             (0369)         jnz   I2CMSCR_NotReady3
0475: 2E 02 80 OR    [0x2],0x80         (0370)         or    [I2CHW_1_RsrcStatus], I2CHW_ISR_ACTIVE       ;lag set here but cleared in ISRf
0478: 52 FD    MOV   A,[X-3]            (0371)     mov   A, [X + TxSlaveAddr]
047A: 64       ASL   A                  (0372)     asl   A                                                ; Shift address to the left to make
                                        (0373)                                                            ; a complete byte with the R/W bit.
                                        (0374)                                                            ; The ASL takes care of clearing bit 0.
047B: 55 00 00 MOV   [0x0],0x0          (0375)     mov   [I2CHW_1_bStatus],0x00                           ; Clear all flags
047E: 53 01    MOV   [0x1],A            (0376)     mov   [I2CHW_1_SlaveAddr], A                           ; preserve addr+r/w state for the ISR to use
0480: 60 D8    MOV   REG[0xD8],A        (0377)     mov   reg[I2CHW_1_DR], A                               ; put the write addr into the I2C_DR reg
0482: 52 F9    MOV   A,[X-7]            (0378)     mov   A, [X+TxCMode]                                                             ; place the RxMode in status so ISR can access it
0484: 53 00    MOV   [0x0],A            (0379)     mov   [I2CHW_1_bStatus],A
                                        (0380)     ;
                                        (0381)         ;we must now initialize a read buffer using I2CHW_1_InitWrite
                                        (0382)         ;
0486: 10       PUSH  X                  (0383)         push   X                                                ;preserve X since it's used later
                                        (0384) 
0487: 50 00    MOV   A,0x0              (0385)          mov    A, 0                                             ;get the write buf size (this is the hi order part)
0489: 77 FA    INC   [X-6]              (0386)         inc    [X+TxCByteCount]                                 ;increase this by one since the init routine will decrement it by 1
048B: D0 02    JNC   0x048E             (0387)         jnc    . + 3                                           ;but the ISR understands the original count passed (sigh...)(F.O.E.O.)
048D: 74       INC   A                  (0388)         inc    A                                                                                        ;if the low order part of the count happened to roll to 0x00, inc the hi part
048E: 08       PUSH  A                  (0389)         push   A
048F: 52 FA    MOV   A,[X-6]            (0390)         mov    A, [X+TxCByteCount]                              ;initFlasRead needs a 2 byte count this is the low ord byte
0491: 08       PUSH  A                  (0391)         push   A
0492: 52 FB    MOV   A,[X-5]            (0392)         mov    A, [X+TxCArrayMSB]                               ;get the write buf addr
0494: 08       PUSH  A                  (0393)         push   A                                                                                        ;this will be ignored
0495: 52 FC    MOV   A,[X-4]            (0394)         mov    A, [X+TxCArrayLSB]                               ;get the write buf addr
0497: 08       PUSH  A                  (0395)         push   A
                                        (0396) 
0498: 92 E9    CALL  _I2CHW_1_InitFlashRead(0397)         call  I2CHW_1_InitFlashRead                        ;sets the addr and byte count to write to
049A: 38 FC    ADD   SP,0xFC            (0398)         add SP, -4
049C: 20       POP   X                  (0399)         pop X                                                   ;restore X to be used for the rest of this routine
                                        (0400) 
                                        (0401)     ;or  [I2CHW_1_RsrcStatus],I2C_READFLASH
049D: 51 01    MOV   A,[0x1]            (0402)     mov   A,[I2CHW_1_SlaveAddr]
049F: 48 F9 01 TST   [X-7],0x1          (0403)     tst   [x+TxMode],I2CHW_1_RepStart                      ; Check if a Start or RepeatStart
04A2: B0 0A    JNZ   0x04AD             (0404)     jnz   DoCRestartTx                                     ; should executed.
04A4: 49 D7 01 TST   REG[0xD7],0x1      (0405)     tst   reg[I2CHW_1_SCR], I2C_BYTE_COMPL                 ; indicates the I2C bus is stalled
04A7: BF 77    JNZ   0x041F             (0406)     jnz   DoRestartRx
04A9: 90 A0    CALL  0x054B             (0407)     call  I2C_DoStart                                      ; Send a start and address.
04AB: 80 03    JMP   0x04AF             (0408)     jmp   DoCTxAck
                                        (0409) DoCRestartTx:
04AD: 90 05    CALL  0x04B4             (0410)     call  I2CHW_1_DoBufferRepeatStart                           ; Send a repeat start and address.
04AF: 70 3F    AND   F,0x3F             
04B1: 71 C0    OR    F,0xC0             
                                        (0411) 
                                        (0412) DoCTxAck:                                                  ; Test to see if Slave is ACKed
                                        (0413) 
                                        (0414) CWriteSlaveAck:
                                        (0415)     RAM_EPILOGUE RAM_USE_CLASS_2
                                        (0416)     RAM_EPILOGUE RAM_USE_CLASS_4
04B3: 7F       RET                      (0417)     ret
04B4: 62 D0 00 MOV   REG[0xD0],0x0      
                                        (0418) 
                                        (0419) .ENDSECTION
                                        (0420) 
                                        (0421) .SECTION
                                        (0422) ;-----------------------------------------------------------------------------
                                        (0423) ;  FUNCTION NAME: I2CHW_1_DoBufferRepeatStart
                                        (0424) ;
                                        (0425) ;  DESCRIPTION:
                                        (0426) ;    Send repeated start condition and send slave address for buffered transfers.
                                        (0427) ;
                                        (0428) ;-----------------------------------------------------------------------------
                                        (0429) ;
                                        (0430) ;  ARGUMENTS:
                                        (0431) ;     This routine is called internally only.  It is not exported or intended as an API
                                        (0432) ;
                                        (0433) ;  RETURNS:
                                        (0434) ;    None
                                        (0435) ;
                                        (0436) ;  SIDE EFFECTS:
                                        (0437) ;    The A and X registers may be modified by this or future implementations
                                        (0438) ;    of this function.  The same is true for all RAM page pointer registers in
                                        (0439) ;    the Large Memory Model.  When necessary, it is the calling function's
                                        (0440) ;    responsibility to perserve their values across calls to fastcall16 
                                        (0441) ;    functions.
                                        (0442) ;          
                                        (0443) ;  THEORY of OPERATION or PROCEDURE:
                                        (0444) ;    This is similar to the I2C_DoRepeatStart entry point but this function does not
                                        (0445) ;    wait for the byte_complete flag.  That is this is not polled and is therefore compatible
                                        (0446) ;    with the buffered read and write functions (above).
                                        (0447) ;
                                        (0448) ;-----------------------------------------------------------------------------
                                        (0449) 
                                        (0450) I2CHW_1_DoBufferRepeatStart:
                                        (0451)     RAM_PROLOGUE RAM_USE_CLASS_4
                                        (0452) 	RAM_SETPAGE_CUR >I2CHW_1_SlaveAddr
                                        (0453)     ;here the path through the routine is dependent on the previous transmission.
                                        (0454)         ; 1. a slave being written too must have acked or nakk'ed the previous byte (generating a Byte complete
                                        (0455)         ; I2C interrupt
                                        (0456)         ; 2a. the master must NAK the byte if he is reading from the slave.
                                        (0457)         ; We do have to look at the status of the I2C block to see what is going on because if there was a
                                        (0458)         ; previous write to a slave it may have ack'ed or nak'ed so we set an address and attempt a repeat start
                                        (0459)         ; by setting the master restart bit and clearing to I2C_SCR (I2C_TX)
                                        (0460)         ; 2b. if we are reading from theslave we would NAK it by clearing the I2C_ACKOUT bit and writing I2C_TX to the
                                        (0461)         ; I2C_SCR reg.  (same as if we were writing to slave).
                                        (0462)         ; 3. once the ISR starts it will figure out which direction we are going with data (sending/receiving)
                                        (0463)         ;
04B7: 60 D8    MOV   REG[0xD8],A        (0464)     mov   reg[I2CHW_1_DR], A
04B9: 53 01    MOV   [0x1],A            (0465)         mov   [I2CHW_1_SlaveAddr], A
                                        (0466)         ;tst      reg[I2CHW_1_MSCR], I2CM_MASTEROP         ;do we even have control of the bus?
                                        (0467)         ;jz    notBusMasterErr
04BB: 5D D9    MOV   A,REG[0xD9]        (0468)     mov   A, reg[I2CHW_1_MSCR]                             ;read the mscr register to look for pending master operations
04BD: 21 0F    AND   A,0xF              (0469)     and   A, 0x0f                                          ;only look at the lower bits
04BF: A0 11    JZ    0x04D1             (0470)         jz    BusIdleSendStart
04C1: 62 D9 02 MOV   REG[0xD9],0x2      
                                        (0471)         ; for a single master system this should not be an issue,
                                        (0472)         ; so we'll go ahead and request the restart.  If a stop condition was already generated
                                        (0473)         ; the state machine will automatically generate a start instead.
                                        (0474) 
                                        (0475)         ;SetI2CHW_1_SCR I2CM_RESTRT
                                        (0476)     ;mov   reg[I2CHW_1_MSCR], I2CM_RESTRT
                                        (0477)         ;SetI2CHW_1_SCR          I2C_TX                                ;even though the restart has been requested the state
                                        (0478)         ;mov      reg[I2CHW_1_SCR], I2C_TX                 ;even though the restart has been requested the state
                                        (0479) 
                                        (0480) ;IF I2CHW_1_THROTTLE_CLK_RATE
                                        (0481)         SetI2CHW_1_MSCR I2CM_RESTRT
                                        (0482) ;ELSE
                                        (0483) ;    mov   reg[I2CHW_1_MSCR], I2CM_RESTRT
                                        (0484) ;ENDIF
04C4: 49 D7 04 TST   REG[0xD7],0x4      (0485)     tst   reg[I2CHW_1_SCR], I2C_TX
04C7: B0 05    JNZ   0x04CD             (0486)     jnz   I2C_RestartRecieve
04C9: 62 D7 04 MOV   REG[0xD7],0x4      
                                        (0487) 
                                        (0488) ;IF I2CHW_1_THROTTLE_CLK_RATE
                                        (0489)     SetI2CHW_1_SCR I2C_TX                                  ;even though the restart has been requested the state
                                        (0490) ;ELSE
                                        (0491) ;    mov   reg[I2CHW_1_SCR], I2C_TX                        ;send Ack
                                        (0492) ;ENDIF
                                        (0493) 
                                        (0494)     RAM_EPILOGUE RAM_USE_CLASS_4
04CC: 7F       RET                      (0495)     ret
04CD: 62 D7 00 MOV   REG[0xD7],0x0      
                                        (0496) I2C_RestartRecieve:
                                        (0497) 
                                        (0498) ;IF I2CHW_1_THROTTLE_CLK_RATE
                                        (0499)     SetI2CHW_1_SCR 0                                       ;even though the restart has been requested the state
                                        (0500) ;ELSE
                                        (0501) ;    mov   reg[I2CHW_1_SCR], 0                             ;send Ack
                                        (0502) ;ENDIF
                                        (0503) 
                                        (0504)    RAM_EPILOGUE RAM_USE_CLASS_4
04D0: 7F       RET                      (0505)    ret
                                        (0506) 
                                        (0507) BusIdleSendStart:
04D1: 51 01    MOV   A,[0x1]            (0508)    mov    A, [I2CHW_1_SlaveAddr]
04D3: 90 76    CALL  0x054B             (0509)    call   I2C_DoStart
                                        (0510)    ;Since something appears to be messed up do the next best thing to a repeat start, send a start.
                                        (0511)    RAM_EPILOGUE RAM_USE_CLASS_4
04D5: 7F       RET                      (0512)    ret
04D6: 62 D0 00 MOV   REG[0xD0],0x0      
                                        (0513) 
                                        (0514) .ENDSECTION
                                        (0515) 
                                        (0516) .SECTION
                                        (0517) 
                                        (0518) ;-----------------------------------------------------------------------------
                                        (0519) ;  FUNCTION NAME: I2CHW_1_fSendRepeatStart
                                        (0520) ;
                                        (0521) ;  DESCRIPTION:
                                        (0522) ;    Send repeated start condition and send slave address.
                                        (0523) ;
                                        (0524) ;-----------------------------------------------------------------------------
                                        (0525) ;
                                        (0526) ;  ARGUMENTS:
                                        (0527) ;    I2CHW_1_bAddr - Contains the slave address and transfer direction.
                                        (0528) ;
                                        (0529) ;  RETURNS:
                                        (0530) ;    I2CHW_1_bSTatus - nonZero if a slave responds to a request. Zero otherwise
                                        (0531) ;    Acc register contains non zero value for success (contents of the i2C_SCR reg)  0 indicates failure
                                        (0532) ;    Returns a zero if the repeat start results in a NAK by an addressed device.
                                        (0533) ;
                                        (0534) ;  SIDE EFFECTS:
                                        (0535) ;    The A and X registers may be modified by this or future implementations
                                        (0536) ;    of this function.  The same is true for all RAM page pointer registers in
                                        (0537) ;    the Large Memory Model.  When necessary, it is the calling function's
                                        (0538) ;    responsibility to perserve their values across calls to fastcall16 
                                        (0539) ;    functions.
                                        (0540) ;          
                                        (0541) ;    Currently only the page pointer registers listed below are modified: 
                                        (0542) ;          CUR_PP
                                        (0543) ;
                                        (0544) ;  THEORY of OPERATION or PROCEDURE:
                                        (0545) ;    Prepare to send start by setting SCl and SDA high.
                                        (0546) ;    must be followed directly by I2CHW_1_start.
                                        (0547) ;
                                        (0548) ;-----------------------------------------------------------------------------
                                        (0549)  I2CHW_1_fSendRepeatStart:
                                        (0550) _I2CHW_1_fSendRepeatStart:
                                        (0551)     RAM_PROLOGUE RAM_USE_CLASS_4
                                        (0552) 	RAM_SETPAGE_CUR >I2CHW_1_bStatus
                                        (0553)     ;wait if the bus is already busy...
04D9: 08       PUSH  A                  (0554)     push  A
04DA: 55 00 00 MOV   [0x0],0x0          (0555)     mov   [I2CHW_1_bStatus], 0x00
                                        (0556) I2CMSCR_NotReady4:
04DD: 51 02    MOV   A,[0x2]            (0557)     mov    A, [I2CHW_1_RsrcStatus]                         ; test to see if previous command started ISR
04DF: 47 02 80 TST   [0x2],0x80         (0558)     tst    [I2CHW_1_RsrcStatus], I2CHW_ISR_ACTIVE
                                        (0559)     ;mov   A, reg[I2CHW_1_MSCR]                            ;read the mscr register to look for pending master operations
                                        (0560)     ;and   A, 0x0f                                           ;only look at the lower bits
                                        (0561)           ;For multi master operations, a pening start or restart
                                        (0562)           ;request might be OK, the master might be waiting to
                                        (0563)           ;acquire the bus from another master
04E2: BF FA    JNZ   0x04DD             (0564)     jnz   I2CMSCR_NotReady4
04E4: 18       POP   A                  (0565)     pop   A
                                        (0566) 
                                        (0567) 
04E5: 64       ASL   A                  (0568)     asl   a                                                ; Shift address to the left
04E6: 79       DEC   X                  (0569)     dec   x                                                ; If zero, C flag will be set
04E7: C0 03    JC    0x04EB             (0570)     jc    I2C_DoRepeatStart                                ; Do a write if zero
04E9: 29 01    OR    A,0x1              (0571)     or    a,0x01                                           ; Set Read flag
                                        (0572) 
                                        (0573) I2C_DoRepeatStart:
                                        (0574)     ;here the path through the routine is dependent on the previous transmission.
                                        (0575)         ; 1. a slave being written too must have acked or nakk'ed the previous byte (generating a Byte complete
                                        (0576)         ; I2C interrupt
                                        (0577)         ; 2. the master must NAK the byte if he is reading from the slave.
                                        (0578)         ; We don't have to look at the status of the I2C block to see what is going on because if there was a
                                        (0579)         ; previous write to a slave it may have ack'ed or nak'ed so we set an address and attempt a repeat start
                                        (0580)         ; by setting the master restart bit and writing to I2C_SCR (I2C_TX)
                                        (0581)         ; if we are reading from theslave we would NAK it by clearing the I2C_ACKOUT bit and writing I2C_TX to the
                                        (0582)         ; I2C_SCR reg.  (same as if we were writing to slave).
                                        (0583)         ;
04EB: 60 D8    MOV   REG[0xD8],A        (0584)     mov   reg[I2CHW_1_DR], A
04ED: 53 01    MOV   [0x1],A            (0585)     mov   [I2CHW_1_SlaveAddr], A
04EF: 49 D9 04 TST   REG[0xD9],0x4      (0586)     tst       reg[I2CHW_1_MSCR], I2CM_MASTEROP             ;do we even have control of the bus?
04F2: A0 1C    JZ    0x050F             (0587)     jz    notBusMaster1
04F4: 62 D9 02 MOV   REG[0xD9],0x2      
04F7: 62 D7 00 MOV   REG[0xD7],0x0      
                                        (0588)     ;SetI2CHW_1_MSCR  I2CM_RESTRT
                                        (0589)     ;mov   reg[I2CHW_1_MSCR], I2CM_RESTRT
                                        (0590)     ;SetI2CHW_1_SCR         I2C_TX                         ;even though the restart has been requested the state
                                        (0591)     ;mov      reg[I2CHW_1_SCR], I2C_TX                     ;even though the restart has been requested the state
                                        (0592)                                                                 ; machine is stalling the SCL and has to be 'released'
                                        (0593) ;IF I2CHW_1_THROTTLE_CLK_RATE
                                        (0594)     SetI2CHW_1_MSCR I2CM_RESTRT
                                        (0595)     SetI2CHW_1_SCR  0                                      ;getting a restart out requires a 0 into the SCR reg
                                        (0596) ;ELSE
                                        (0597) ;    mov   reg[I2CHW_1_MSCR], I2CM_RESTRT
                                        (0598) ;    mov   reg[I2CHW_1_SCR], 0                             ;getting a restart out requires a 0 into the SCR reg
                                        (0599) ;ENDIF
                                        (0600) 
                                        (0601) WaitRepStrtCompl:
04FA: 5D D7    MOV   A,REG[0xD7]        (0602)     mov   A,  reg[I2CHW_1_SCR]
04FC: 49 D7 01 TST   REG[0xD7],0x1      (0603)     tst   reg[I2CHW_1_SCR],I2C_BYTE_COMPL                  ; Test to see if Slave ACKed
04FF: AF FA    JZ    0x04FA             (0604)     jz    WaitRepStrtCompl
0501: 49 D7 02 TST   REG[0xD7],0x2      (0605)     tst   reg[I2CHW_1_SCR], I2C_LST_BIT
0504: B0 07    JNZ   0x050C             (0606)     jnz   Err_Exit_RepStart
0506: 55 00 01 MOV   [0x0],0x1          (0607)     mov   [I2CHW_1_bStatus], 0x01
0509: 50 01    MOV   A,0x1              (0608)     mov   A, 01
                                        (0609)     RAM_EPILOGUE RAM_USE_CLASS_4
050B: 7F       RET                      (0610)     ret
                                        (0611) 
                                        (0612) Err_Exit_RepStart:
050C: 50 00    MOV   A,0x0              (0613)     mov   A, 0
                                        (0614)     RAM_EPILOGUE RAM_USE_CLASS_4
050E: 7F       RET                      (0615)     ret
                                        (0616) 
                                        (0617)  notBusMaster1:
                                        (0618)     ;SetI2CHW_1_MSCR 0
                                        (0619)     ;mov reg[I2CHW_1_MSCR], 0                              ;we certainly cant restart if we've not Master
                                        (0620)     ;WHAT else should be done for this case?  Some sort of improper operation is being attempted.
050F: 50 00    MOV   A,0x0              (0621)     mov   A, 0
                                        (0622)     RAM_EPILOGUE RAM_USE_CLASS_4
0511: 7F       RET                      (0623)     ret
0512: 62 D0 00 MOV   REG[0xD0],0x0      
                                        (0624) 
                                        (0625) .ENDSECTION
                                        (0626) 
                                        (0627) .SECTION
                                        (0628) ;-----------------------------------------------------------------------------
                                        (0629) ;  FUNCTION NAME: I2CHW_1_fSendStart
                                        (0630) ;
                                        (0631) ;  DESCRIPTION:
                                        (0632) ;    Generates start condition and sends slave address.
                                        (0633) ;
                                        (0634) ;-----------------------------------------------------------------------------
                                        (0635) ;
                                        (0636) ;  ARGUMENTS:
                                        (0637) ;    A => Contains the slave address.
                                        (0638) ;
                                        (0639) ;  RETURNS:
                                        (0640) ;    I2CHW_1_bSTatus - nonZero if a slave responds to a request. Zero otherwise
                                        (0641) ;    Acc register contains non zero value for success (contents of the i2C_SCR reg)  0 indicates failure
                                        (0642) ;    Returns a zero if the repeat start results in a NAK by an addressed device.
                                        (0643) ;
                                        (0644) ;  SIDE EFFECTS:
                                        (0645) ;    The A and X registers may be modified by this or future implementations
                                        (0646) ;    of this function.  The same is true for all RAM page pointer registers in
                                        (0647) ;    the Large Memory Model.  When necessary, it is the calling function's
                                        (0648) ;    responsibility to perserve their values across calls to fastcall16 
                                        (0649) ;    functions.
                                        (0650) ;          
                                        (0651) ;    Currently only the page pointer registers listed below are modified: 
                                        (0652) ;          CUR_PP
                                        (0653) ;
                                        (0654) ;  THEORY of OPERATION or PROCEDURE:
                                        (0655) ;   Send start by setting SDA low while SCL is high. Set
                                        (0656) ;   SCL low in preparation to send address. 
                                        (0657) ;   Sends address, waits for byte complete
                                        (0658) ;   An address must be followed by a read or write of data if it was acked by a slave
                                        (0659) ;
                                        (0660) ;  WARNING: this routine will disable the I2C interrupt.  It will wait until the I2C_BYTE_COMPLETE
                                        (0661) ;   flag is set to return.
                                        (0662) ;
                                        (0663) ;
                                        (0664) ;-----------------------------------------------------------------------------
                                        (0665)  I2CHW_1_fSendStart:
                                        (0666) _I2CHW_1_fSendStart:
                                        (0667)     RAM_PROLOGUE RAM_USE_CLASS_4
                                        (0668) 	RAM_SETPAGE_CUR >I2CHW_1_bStatus 
                                        (0669)     ;wait if the bus is already busy...
0515: 08       PUSH  A                  (0670)     push  A
0516: 55 00 00 MOV   [0x0],0x0          (0671)     mov   [I2CHW_1_bStatus], 0x00
                                        (0672) I2CMSCR_NotReady5:
0519: 51 02    MOV   A,[0x2]            (0673)     mov    A, [I2CHW_1_RsrcStatus]                         ; test to see if previous command started ISR
051B: 47 02 80 TST   [0x2],0x80         (0674)     tst    [I2CHW_1_RsrcStatus], I2CHW_ISR_ACTIVE
                                        (0675)     ;mov   A, reg[I2CHW_1_MSCR]                            ;read the mscr register to look for pending master operations
                                        (0676)     ;and   A, 0x0f                                           ;only look at the lower bits
                                        (0677)           ;For multi master operations, a pening start or restart
                                        (0678)           ;request might be OK, the master might be waiting to
                                        (0679)           ;acquire the bus from another master
051E: BF FA    JNZ   0x0519             (0680)     jnz   I2CMSCR_NotReady5
0520: 18       POP   A                  (0681)     pop   A
0521: 41 DE FE AND   REG[0xDE],0xFE     
                                        (0682) 
                                        (0683) 
                                        (0684)     ; disable the interrupt
                                        (0685)         ; *** NOT REENABLED ***
                                        (0686)         ;
                                        (0687)     M8C_DisableIntMask I2CHW_1_INT_REG, I2CHW_1_INT_MASK
0524: 49 D7 01 TST   REG[0xD7],0x1      (0688)     tst   reg[I2CHW_1_SCR],I2C_BYTE_COMPL                  ;If there is a pending BYTE_COMPL here
                                        (0689)                                                                 ;it is highly probable that a start is not the
                                        (0690)                                                                                                                     ;correct thing to do.
                                        (0691)                                                                                                                     ;leaving
0527: B0 20    JNZ   0x0548             (0692)     jnz   Err_Exit_Start
                                        (0693) 
0529: 64       ASL   A                  (0694)     asl   a                                                ; Shift address to the left
052A: 79       DEC   X                  (0695)     dec   x                                                ; If zero, C flag will be set
052B: C0 03    JC    0x052F             (0696)     jc    I2C_SndWRStart                                   ; Do a write if zero
052D: 29 01    OR    A,0x1              (0697)     or    a,0x01                                           ; Set Read flag
                                        (0698) I2C_SndWRStart:
052F: 60 D8    MOV   REG[0xD8],A        (0699)     mov   reg[I2CHW_1_DR], A
0531: 53 01    MOV   [0x1],A            (0700)     mov   [I2CHW_1_SlaveAddr], A
0533: 62 D9 01 MOV   REG[0xD9],0x1      
                                        (0701)     ;SetI2CHW_1_MSCR, I2CM_SNDSTRT
                                        (0702)     ;mov   reg[I2CHW_1_MSCR], I2CM_SNDSTRT
                                        (0703) 
                                        (0704) ;IF I2CHW_1_THROTTLE_CLK_RATE
                                        (0705)     SetI2CHW_1_MSCR I2CM_SNDSTRT
                                        (0706) ;ELSE
                                        (0707) ;    mov   reg[I2CHW_1_MSCR], I2CM_SNDSTRT
                                        (0708) ;ENDIF
                                        (0709) 
                                        (0710) 
                                        (0711) WaitStrtByteCompl:
0536: 5D D7    MOV   A,REG[0xD7]        (0712)     mov   A,  reg[I2CHW_1_SCR]
0538: 49 D7 01 TST   REG[0xD7],0x1      (0713)     tst   reg[I2CHW_1_SCR],I2C_BYTE_COMPL                  ; Test to see if Slave ACKed
053B: AF FA    JZ    0x0536             (0714)     jz    WaitStrtByteCompl
053D: 49 D7 02 TST   REG[0xD7],0x2      (0715)     tst   reg[I2CHW_1_SCR], I2C_LST_BIT
0540: B0 07    JNZ   0x0548             (0716)     jnz   Err_Exit_Start
0542: 55 00 01 MOV   [0x0],0x1          (0717)     mov   [I2CHW_1_bStatus], 0x01
0545: 50 01    MOV   A,0x1              (0718)     mov   A, 01
                                        (0719)     RAM_EPILOGUE RAM_USE_CLASS_4
0547: 7F       RET                      (0720)     ret
                                        (0721) Err_Exit_Start:
0548: 50 00    MOV   A,0x0              (0722)     mov   A, 0
                                        (0723)     RAM_EPILOGUE RAM_USE_CLASS_4
054A: 7F       RET                      (0724)     ret
054B: 62 D0 00 MOV   REG[0xD0],0x0      
                                        (0725) 
                                        (0726) I2C_DoStart:
                                        (0727)     RAM_PROLOGUE RAM_USE_CLASS_4
                                        (0728)     RAM_SETPAGE_CUR >I2CHW_1_SlaveAddr
                                        (0729)     ;here we are not required to test for master operation since we are only attempting to gain control of the bus
                                        (0730)     ; by attempting to assert a Start
                                        (0731)     
054E: 60 D8    MOV   REG[0xD8],A        (0732)     mov   reg[I2CHW_1_DR], A
0550: 53 01    MOV   [0x1],A            (0733)     mov   [I2CHW_1_SlaveAddr], A
0552: 62 D9 01 MOV   REG[0xD9],0x1      
                                        (0734)     ;SetI2CHW_1_MSCR  I2CM_SNDSTRT
                                        (0735)     ;mov   reg[I2CHW_1_MSCR], I2CM_SNDSTRT
                                        (0736) 
                                        (0737) ;IF I2CHW_1_THROTTLE_CLK_RATE
                                        (0738)     SetI2CHW_1_MSCR I2CM_SNDSTRT
                                        (0739) ;ELSE
                                        (0740) ;    mov   reg[I2CHW_1_MSCR], I2CM_SNDSTRT
                                        (0741) ;ENDIF
                                        (0742)     RAM_EPILOGUE RAM_USE_CLASS_4
0555: 7F       RET                      (0743)     ret
0556: 62 D0 00 MOV   REG[0xD0],0x0      
                                        (0744) ;
                                        (0745) ;   DO NOT PLACE
                                        (0746) ;   .SECTION
                                        (0747) ;   .ENDSECTION
                                        (0748) ;   _fSendStart USES CODE BELOW
                                        (0749) ;
                                        (0750) ;-----------------------------------------------------------------------------
                                        (0751) ;  FUNCTION NAME: I2CHW_1_fWrite
                                        (0752) ;
                                        (0753) ;  DESCRIPTION:
                                        (0754) ;    Writes a byte to the I2C master bus.
                                        (0755) ;
                                        (0756) ;-----------------------------------------------------------------------------
                                        (0757) ;
                                        (0758) ;  ARGUMENTS:
                                        (0759) ;    A contains Data to be written to I2C slave.
                                        (0760) ;
                                        (0761) ;  RETURNS:
                                        (0762) ;    1 If ACKed, else 0
                                        (0763) ;
                                        (0764) ;  SIDE EFFECTS:
                                        (0765) ;    REGISTERS ARE VOLATILE: THE A AND X REGISTERS MAY BE MODIFIED!
                                        (0766) ;
                                        (0767) ; - - - - - - - - - - - - - - - - - - - - - - - - - - - - - - - - - - - - - - -
                                        (0768) ;
                                        (0769) ;  FUNCTION NAME: I2CHW_1_fWrite
                                        (0770) ;
                                        (0771) ;  DESCRIPTION:
                                        (0772) ;    Writes a data byte to the I2C master bus. 
                                        (0773) ;
                                        (0774) ;  ARGUMENTS:
                                        (0775) ;    Reg A contains slave address.
                                        (0776) ;    I2CHW_1_bData - Contains data to be transmitted.
                                        (0777) ;
                                        (0778) ;  RETURNS:
                                        (0779) ;    I2CHW_1_bStatus - Cleared if a slave responds to a request. Set otherwise
                                        (0780) ;
                                        (0781) ;  SIDE EFFECTS:
                                        (0782) ;    The A and X registers may be modified by this or future implementations
                                        (0783) ;    of this function.  The same is true for all RAM page pointer registers in
                                        (0784) ;    the Large Memory Model.  When necessary, it is the calling function's
                                        (0785) ;    responsibility to perserve their values across calls to fastcall16 
                                        (0786) ;    functions.
                                        (0787) ;          
                                        (0788) ;    Currently only the page pointer registers listed below are modified: 
                                        (0789) ;          CUR_PP
                                        (0790) ;
                                        (0791) ;    Send data byte to slave. .
                                        (0792) ;
                                        (0793) ;   WARNING: this routine will disable the I2C interrupt.  It will wait until the I2C_BYTE_COMPLETE
                                        (0794) ;    flag is set to return.
                                        (0795) ;
                                        (0796)  I2CHW_1_fWrite:
                                        (0797) _I2CHW_1_fWrite:
                                        (0798)     RAM_PROLOGUE RAM_USE_CLASS_4
                                        (0799) 	RAM_SETPAGE_CUR >I2CHW_1_bStatus
                                        (0800)     ; disable the interrupt
                                        (0801)         ; *** NOT REENABLED ***
                                        (0802)         ;
0559: 60 D8    MOV   REG[0xD8],A        (0803)     mov   reg[I2CHW_1_DR],A                                ; Put data in Data Reg
055B: 41 DE FE AND   REG[0xDE],0xFE     
                                        (0804)     M8C_DisableIntMask I2CHW_1_INT_REG, I2CHW_1_INT_MASK
055E: 5D D9    MOV   A,REG[0xD9]        (0805)     mov   A,  reg[I2CHW_1_MSCR]                            ;MSCR into A incase there is an error here
0560: 49 D9 04 TST   REG[0xD9],0x4      (0806)     tst   reg[I2CHW_1_MSCR],I2CM_MASTEROP                  ;Do we have control of the bus?
0563: A0 19    JZ    0x057D             (0807)     jz    Err_Exit_fWrite
                                        (0808) 
0565: 55 00 00 MOV   [0x0],0x0          (0809)     mov   [I2CHW_1_bStatus],0x00                           ; Clear ACK flag
0568: 62 D7 04 MOV   REG[0xD7],0x4      
                                        (0810)     ;SetI2CHW_1_SCR I2C_TX
                                        (0811)     ;mov   reg[I2CHW_1_SCR], I2C_TX                        ; Put data in Data Reg
                                        (0812) 
                                        (0813) ;IF I2CHW_1_THROTTLE_CLK_RATE
                                        (0814)         SetI2CHW_1_SCR I2C_TX                              ; Put data in Data Reg
                                        (0815) ;ELSE
                                        (0816) ;    mov   reg[I2CHW_1_SCR], I2C_TX                        ; Put data in Data Reg
                                        (0817) ;ENDIF
                                        (0818) 
                                        (0819) 
                                        (0820) I2CHW_1_write:
                                        (0821) _I2CHW_1_write:
                                        (0822) ;    mov   reg[I2CHW_1_SCR],A                              ; Put data in bData
                                        (0823) ;   jmp   I2CHW_1_get_ack                                  ; This jump is not required since it falls
                                        (0824) 
                                        (0825) WaitTXByteCompl:
056B: 5D D7    MOV   A,REG[0xD7]        (0826)     mov   A, reg[I2CHW_1_SCR]
056D: 49 D7 01 TST   REG[0xD7],0x1      (0827)     tst   reg[I2CHW_1_SCR],I2C_BYTE_COMPL                  ; Test to see if Slave ACKed
0570: AF FA    JZ    0x056B             (0828)     jz    WaitTXByteCompl
0572: 49 D7 02 TST   REG[0xD7],0x2      (0829)     tst   reg[I2CHW_1_SCR], I2C_LST_BIT
0575: B0 07    JNZ   0x057D             (0830)     jnz   Err_Exit_fWrite
0577: 55 00 FF MOV   [0x0],0xFF         (0831)     mov   [I2CHW_1_bStatus], 0xff
057A: 50 01    MOV   A,0x1              (0832)     mov   A, 01
                                        (0833)     RAM_EPILOGUE RAM_USE_CLASS_4
057C: 7F       RET                      (0834)     ret
                                        (0835) 
                                        (0836) Err_Exit_fWrite:
057D: 50 00    MOV   A,0x0              (0837)     mov   A, 0
057F: 53 00    MOV   [0x0],A            (0838)     mov   [I2CHW_1_bStatus], A
                                        (0839)     RAM_EPILOGUE RAM_USE_CLASS_4
0581: 7F       RET                      (0840)     ret
0582: 62 D0 00 MOV   REG[0xD0],0x0      
                                        (0841) 
                                        (0842) .ENDSECTION
                                        (0843) 
                                        (0844) .SECTION
                                        (0845) ;-----------------------------------------------------------------------------
                                        (0846) ;  FUNCTION NAME: I2CHW_1_get_ack
                                        (0847) ;
                                        (0848) ;  DESCRIPTION:
                                        (0849) ;    Get slave acknowledge response. Used to poll for I2C_BYTE_COMPL and then test Ack (I2C_LST_BIT)
                                        (0850) ;
                                        (0851) ;-----------------------------------------------------------------------------
                                        (0852) ;
                                        (0853) ;  ARGUMENTS:
                                        (0854) ;
                                        (0855) ;  RETURNS:
                                        (0856) ;    Sets flag in I2CHW_1_bStatus if ACKed by Slave.  !!!
                                        (0857) ;
                                        (0858) ;  SIDE EFFECTS:
                                        (0859) ;    The A and X registers may be modified by this or future implementations
                                        (0860) ;    of this function.  The same is true for all RAM page pointer registers in
                                        (0861) ;    the Large Memory Model.  When necessary, it is the calling function's
                                        (0862) ;    responsibility to perserve their values across calls to fastcall16 
                                        (0863) ;    functions.
                                        (0864) ;          
                                        (0865) ;    Currently only the page pointer registers listed below are modified: 
                                        (0866) ;          CUR_PP
                                        (0867) ;
                                        (0868) ;    Do the ack clock and check for Slave ACK
                                        (0869) ;
                                        (0870) I2CHW_1_get_ack:
                                        (0871) _I2CHW_1_get_ack:
                                        (0872)     RAM_PROLOGUE RAM_USE_CLASS_4
                                        (0873) 	RAM_SETPAGE_CUR >I2CHW_1_bStatus
0585: 26 00 FE AND   [0x0],0xFE         (0874)     and [I2CHW_1_bStatus], ~I2CHW_1_SLAVE_ACKed
0588: 49 D7 01 TST   REG[0xD7],0x1      (0875)     tst reg[I2CHW_1_SCR], I2C_BYTE_COMPL
058B: BF F6    JNZ   0x0582             (0876)     jnz I2CHW_1_get_ack
058D: 49 D7 02 TST   REG[0xD7],0x2      (0877)     tst reg[I2CHW_1_SCR], I2C_LST_BIT
0590: B0 04    JNZ   0x0595             (0878)     jnz notAcked
0592: 2E 00 01 OR    [0x0],0x1          (0879)     or [I2CHW_1_bStatus], I2CHW_1_SLAVE_ACKed
                                        (0880) notAcked:
                                        (0881)     RAM_EPILOGUE RAM_USE_CLASS_4
0595: 7F       RET                      (0882)     ret
0596: 62 D0 00 MOV   REG[0xD0],0x0      
0599: 41 DE FE AND   REG[0xDE],0xFE     
                                        (0883) 
                                        (0884) .ENDSECTION
                                        (0885) 
                                        (0886) .SECTION
                                        (0887) 
                                        (0888) ;-----------------------------------------------------------------------------
                                        (0889) ;  FUNCTION NAME: I2CHW_1_bRead
                                        (0890) ;
                                        (0891) ;  DESCRIPTION:
                                        (0892) ;    Reads 1 data byte from the I2C master bus.
                                        (0893) ;
                                        (0894) ;-----------------------------------------------------------------------------
                                        (0895) ;
                                        (0896) ;  ARGUMENTS:
                                        (0897) ;    Reg A Contains the Slave Address.
                                        (0898) ;    I2CHW_1_bStatus - Set for no ack to be followed by stop.
                                        (0899) ;    Clear for ack to indicate more data to follow.
                                        (0900) ;
                                        (0901) ;  RETURNS:
                                        (0902) ;    I2CHW_1_bData - Contains received data.
                                        (0903) ;
                                        (0904) ;  SIDE EFFECTS:
                                        (0905) ;    The A and X registers may be modified by this or future implementations
                                        (0906) ;    of this function.  The same is true for all RAM page pointer registers in
                                        (0907) ;    the Large Memory Model.  When necessary, it is the calling function's
                                        (0908) ;    responsibility to perserve their values across calls to fastcall16 
                                        (0909) ;    functions.
                                        (0910) ;          
                                        (0911) ;    Currently only the page pointer registers listed below are modified: 
                                        (0912) ;          CUR_PP
                                        (0913) ;
                                        (0914) ;    Must be followed by I2CHW_1_put_ack.
                                        (0915) ;    The I2CHW_1 interrupt should be disabled since this routine will poll the
                                        (0916) ;    reg[I2CHW_1_SCR] to determine when a byte is available
                                        (0917) ;
                                        (0918) ;   WARNING: this routine will disable the I2C interrupt.  It will wait until the I2C_BYTE_COMPLETE
                                        (0919) ;    flag is set to return.
                                        (0920) ;
                                        (0921) I2CHW_1_bRead:
                                        (0922) _I2CHW_1_bRead:
                                        (0923)     RAM_PROLOGUE RAM_USE_CLASS_4
                                        (0924) 	RAM_SETPAGE_CUR >I2CHW_1_bStatus
                                        (0925)     ; disable the interrupt
                                        (0926)     ; *** NOT REENABLED ***
                                        (0927)     ;
                                        (0928)     M8C_DisableIntMask I2CHW_1_INT_REG, I2CHW_1_INT_MASK
059C: 49 D9 04 TST   REG[0xD9],0x4      (0929)     tst       reg[I2CHW_1_MSCR], I2CM_MASTEROP             ;do we even have control of the bus?
059F: A0 28    JZ    0x05C8             (0930)     jz    notBusMaster2
                                        (0931) 
05A1: 55 00 00 MOV   [0x0],0x0          (0932)     mov   [I2CHW_1_bStatus],0x00                           ; Clear ACK flag
                                        (0933)     ;or    I2CHW_1_SEND_ACK                                ; Set ACK flag
                                        (0934) ;
                                        (0935) ; Check for the special case of the first read after and address is sent
                                        (0936) ;
                                        (0937) 
05A4: 08       PUSH  A                  (0938)     push  A                                                ;preserve the information about wether to ACK or NAK this byte
05A5: 5D D7    MOV   A,REG[0xD7]        (0939)     mov   A, reg[I2CHW_1_SCR]
05A7: 49 D7 08 TST   REG[0xD7],0x8      (0940)     tst   reg[I2CHW_1_SCR], I2C_ADDRIN
05AA: A0 04    JZ    0x05AF             (0941)     jz    WaitRXByteCompl                                  ;addr bit not set then this is a normal read
05AC: 62 D7 00 MOV   REG[0xD7],0x0      
                                        (0942)     ;SetI2CHW_1_SCR 0
                                        (0943)     ;mov   reg[I2CHW_1_SCR], 0                             ;clear the I2C_ADDR bit (to unstall SCL) & wait for next byte
                                        (0944) 
                                        (0945) ;IF I2CHW_1_THROTTLE_CLK_RATE
                                        (0946)     SetI2CHW_1_SCR 0                                       ;clear the I2C_ADDR bit (to unstall SCL) & wait for next byte
                                        (0947) ;ELSE
                                        (0948) ;    mov   reg[I2CHW_1_SCR], 0                             ;clear the I2C_ADDR bit (to unstall SCL) & wait for next byte
                                        (0949) ;ENDIF
                                        (0950)                                                            ; through to I2CHW_1_put_ack.
                                        (0951) 
                                        (0952)     ;must DROP through to send an Ack and another byte,
                                        (0953)     ;to stop reading we NAK the slave
                                        (0954) WaitRXByteCompl:
05AF: 49 D7 01 TST   REG[0xD7],0x1      (0955)     tst   reg[I2CHW_1_SCR],I2C_BYTE_COMPL                  ; Test to see if Slave ACKed
05B2: AF FC    JZ    0x05AF             (0956)     jz    WaitRXByteCompl
                                        (0957) 
05B4: 18       POP   A                  (0958)     pop   A                                                ;recover the saved ACK/NAK flag
05B5: 21 FF    AND   A,0xFF             (0959)     and   A,0xFF                                           ; Is Ack flag set"
05B7: A0 0A    JZ    0x05C2             (0960)     jz    exit_bRead_NOACK                                 ; Don't ACK
                                        (0961) 
                                        (0962)         ;now if the ACK flag was set, Ack the data which will release the bus and start the next byte in
                                        (0963)         ;otherwise do NOTHING to the SCR reg.  This will allow the calling routine to generate a repeat start
                                        (0964)         ;or a stop depending on it's preference.
                                        (0965) 
                                        (0966) 
05B9: 5D D8    MOV   A,REG[0xD8]        (0967)     mov   A, reg[I2CHW_1_DR]                               ; Record data received
05BB: 62 D7 10 MOV   REG[0xD7],0x10     
                                        (0968)     ;SetI2CHW_1_SCR I2C_ACKOUT
                                        (0969)     ;mov   reg[I2CHW_1_SCR], I2C_ACKOUT                    ; Record data received
                                        (0970) 
                                        (0971) ;IF I2CHW_1_THROTTLE_CLK_RATE
                                        (0972)     SetI2CHW_1_SCR I2C_ACKOUT                              ; Record data received
                                        (0973) ;ELSE
                                        (0974) ;    mov   reg[I2CHW_1_SCR], I2C_ACKOUT                    ; Record data received
                                        (0975) ;ENDIF
                                        (0976) 
05BE: 55 00 01 MOV   [0x0],0x1          (0977)     mov   [I2CHW_1_bStatus],0x01                           ; Clear ACK flag
                                        (0978)     RAM_EPILOGUE RAM_USE_CLASS_4
05C1: 7F       RET                      (0979)     ret
                                        (0980) 
                                        (0981) exit_bRead_NOACK:
05C2: 5D D8    MOV   A,REG[0xD8]        (0982)     mov   A, reg[I2CHW_1_DR]                               ; Record data received
                                        (0983)     ; send no Ack or Nak, the calling routine will have to decide to NAK or execute a repeat start.
                                        (0984)     ; sending nothing leaves the bus held in wait until a decision is made.
05C4: 55 00 00 MOV   [0x0],0x0          (0985)     mov   [I2CHW_1_bStatus],0x00                           ; Clear ACK flag
                                        (0986)     RAM_EPILOGUE RAM_USE_CLASS_4
05C7: 7F       RET                      (0987)     ret
                                        (0988) 
                                        (0989) notBusMaster2:
05C8: 55 00 FF MOV   [0x0],0xFF         (0990)    mov   [I2CHW_1_bStatus], 0xff
                                        (0991)    ;SetI2CHW_1_SCR 0
                                        (0992)    ;mov          reg[I2CHW_1_MSCR], 0                      ;we certainly cant restart if we've not Master
                                        (0993)    ;WHAT else should be done for this case?  Some sort of improper operation is being attempted.
                                        (0994)    RAM_EPILOGUE RAM_USE_CLASS_4
05CB: 7F       RET                      (0995)    ret
                                        (0996) 
                                        (0997) .ENDSECTION
                                        (0998) 
                                        (0999) 
                                        (1000) .SECTION
                                        (1001) ;-----------------------------------------------------------------------------
                                        (1002) ;  FUNCTION NAME: I2CHW_1_SendStop
                                        (1003) ;
                                        (1004) ;  DESCRIPTION:
                                        (1005) ;    Assert stop condition.
                                        (1006) ;
                                        (1007) ;-----------------------------------------------------------------------------
                                        (1008) ;
                                        (1009) ;  ARGUMENTS: none
                                        (1010) ;
                                        (1011) ;  RETURNS: none
                                        (1012) ;
                                        (1013) ;  SIDE EFFECTS:
                                        (1014) ;    The A and X registers may be modified by this or future implementations
                                        (1015) ;    of this function.  The same is true for all RAM page pointer registers in
                                        (1016) ;    the Large Memory Model.  When necessary, it is the calling function's
                                        (1017) ;    responsibility to perserve their values across calls to fastcall16 
                                        (1018) ;    functions.
                                        (1019) ;
                                        (1020) ;  THEORY of OPERATION or PROCEDURE:
                                        (1021) ;     Send stop by releasing SDA high while SCL high. When in Master Read Mode, this
                                        (1022) ;     is done by nak'ing a read from the slave, in Master Write Mode this is done by clearing
                                        (1023) ;     the I2C_TX bit in  reg[I2CHW_1_SCR].  In either case this is a zero written to
                                        (1024) ;     reg[I2CHW_1_SCR].
                                        (1025) ;
                                        (1026)  I2CHW_1_SendStop:
                                        (1027) _I2CHW_1_SendStop:
                                        (1028)     RAM_PROLOGUE RAM_USE_CLASS_1
05CC: 49 D9 04 TST   REG[0xD9],0x4      (1029)     tst   reg[I2CHW_1_MSCR], I2CM_MASTEROP                 ;do we even have control of the bus?
05CF: A0 04    JZ    0x05D4             (1030)     jz    notBusMaster3
05D1: 62 D7 00 MOV   REG[0xD7],0x0      
                                        (1031)     ;SetI2CHW_1_SCR 0
                                        (1032)     ;mov  reg[I2CHW_1_SCR], 0
                                        (1033) ;IF I2CHW_1_THROTTLE_CLK_RATE
                                        (1034)     SetI2CHW_1_SCR 0                                       ; Put data in Data Reg
                                        (1035) ;ELSE
                                        (1036) ;    mov   reg[I2CHW_1_SCR], 0                             ; Put data in Data Reg
                                        (1037) ;ENDIF
                                        (1038) 
                                        (1039) notBusMaster3:
                                        (1040)     RAM_EPILOGUE RAM_USE_CLASS_1
05D4: 7F       RET                      (1041)     ret
05D5: 62 D0 00 MOV   REG[0xD0],0x0      
                                        (1042) .ENDSECTION
                                        (1043) 
                                        (1044) .SECTION
                                        (1045) ;-----------------------------------------------------------------------------
                                        (1046) ;  FUNCTION NAME: I2CHW_1_bReadBusStatus
                                        (1047) ;
                                        (1048) ;  DESCRIPTION:
                                        (1049) ;     Returns the Status bits in the bStatus Register
                                        (1050) ;
                                        (1051) ;-----------------------------------------------------------------------------
                                        (1052) ;
                                        (1053) ;  ARGUMENTS:
                                        (1054) ;
                                        (1055) ;  RETURNS:
                                        (1056) ;     BYTE  bStatus -  Bus status data.  Use the following defined bits
                                        (1057) ;     returned in A.
                                        (1058) ;       I2CHW_1_RepStart:                   equ  0x01
                                        (1059) ;       I2CHW_1_NoStop:                     equ  0x02
                                        (1060) ;       I2CHW_1_NAKnextWr:                  equ  0x04
                                        (1061) ;
                                        (1062) ;  SIDE EFFECTS:
                                        (1063) ;    The A and X registers may be modified by this or future implementations
                                        (1064) ;    of this function.  The same is true for all RAM page pointer registers in
                                        (1065) ;    the Large Memory Model.  When necessary, it is the calling function's
                                        (1066) ;    responsibility to perserve their values across calls to fastcall16 
                                        (1067) ;    functions.
                                        (1068) ;          
                                        (1069) ;  THEORY of OPERATION or PROCEDURE:
                                        (1070) ;     Read the Bus Status register.
                                        (1071) ;
                                        (1072) 
                                        (1073)  I2CHW_1_bReadBusStatus:
                                        (1074) _I2CHW_1_bReadBusStatus:
                                        (1075)    RAM_PROLOGUE RAM_USE_CLASS_4
                                        (1076)    RAM_SETPAGE_CUR >I2CHW_1_bStatus				                    ;Set the Page Pointer for LMM
05D8: 51 00    MOV   A,[0x0]            (1077)    mov   A, [I2CHW_1_bStatus]                      ;return the status in A
                                        (1078)    RAM_EPILOGUE RAM_USE_CLASS_4
05DA: 7F       RET                      (1079)    ret
                                        (1080) 
                                        (1081) .ENDSECTION
                                        (1082) 
                                        (1083) IF SYSTEM_SMALL_MEMORY_MODEL
                                        (1084) .SECTION
                                        (1085) ;-----------------------------------------------------------------------------
                                        (1086) ;  FUNCTION NAME: I2CHW_1_fReadBytes
                                        (1087) ;
                                        (1088) ;  DESCRIPTION:
                                        (1089) ;
                                        (1090) ;-----------------------------------------------------------------------------
                                        (1091) ;
                                        (1092) ;  ARGUMENTS:
                                        (1093) ;      A => Address of slave
                                        (1094) ;      X => Pointer to other arguments.
                                        (1095) ;    [x] => LSB of Array address to put data in.
                                        (1096) ;  [X-1] => MSB of Array address to put data in (ignorned)
                                        (1097) ;  [X-2] => Count of bytes to read.
                                        (1098) ;  [X-3] => Mode flags that allow the programmer to set flags
                                        (1099) ;           to determine if:
                                        (1100) ;             0x01 => Use RepeatStart instead of Start
                                        (1101) ;             0x02 => Don't send Stop
                                        (1102) ;
                                        (1103) ;  RETURNS:       None
                                        (1104) ;
                                        (1105) ;  SIDE EFFECTS:
                                        (1106) ;    The A and X registers may be modified by this or future implementations
                                        (1107) ;    of this function.  The same is true for all RAM page pointer registers in
                                        (1108) ;    the Large Memory Model.  When necessary, it is the calling function's
                                        (1109) ;    responsibility to perserve their values across calls to fastcall16 
                                        (1110) ;    functions.
                                        (1111) ;          
                                        (1112) ;    Currently only the page pointer registers listed below are modified: 
                                        (1113) ;          CUR_PP
                                        (1114) ;
                                        (1115) ;  THEORY of OPERATION or PROCEDURE:
                                        (1116) ;    I2C and block must be operational.
                                        (1117) ;    This routine will enable the I2C interrupt!
                                        (1118) ;    If the I2CHW_ISR_ACTIVE indicates that the I2CHW_ISR is already running this routine will
                                        (1119) ;    pend on the ISR_ACTIVE bit until it can run
                                        (1120) ;
                                        (1121) IF	(TOOLCHAIN & HITECH)
                                        (1122) RxArray:      set   0
                                        (1123) RxByteCount:  set  -2
                                        (1124) RxMode:       set  -3
                                        (1125) ELSE
                                        (1126) RxArray:      equ   0
                                        (1127) RxByteCount:  equ  -2
                                        (1128) RxMode:       equ  -3
                                        (1129) ENDIF
                                        (1130) 
                                        (1131) 
                                        (1132)  I2CHW_1_fReadBytes:
                                        (1133)     push  A
                                        (1134) I2CMSCR_NotReady1Smm:
                                        (1135)         mov    A, [I2CHW_1_RsrcStatus]                     ; test to see if previous command started ISR
                                        (1136)         tst    [I2CHW_1_RsrcStatus], I2CHW_ISR_ACTIVE
                                        (1137)     ;mov   A, reg[I2CHW_1_MSCR]                            ;read the mscr register to look for pending master operations
                                        (1138)     ;and   A, 0x0f                                           ;only look at the lower bits
                                        (1139)           ;For multi master operations, a pening start or restart
                                        (1140)           ;request might be OK, the master might be waiting to
                                        (1141)           ;acquire the bus from another master
                                        (1142)         jnz   I2CMSCR_NotReady1Smm
                                        (1143)     pop   A
                                        (1144)         or    [I2CHW_1_RsrcStatus], I2CHW_ISR_ACTIVE       ; flag set here and cleared by ISR
                                        (1145)     asl   A                                                ; Shift address to the left to make
                                        (1146)                                                            ; a complete byte with the R/W bit.
                                        (1147)     or    A,0x01                                           ; OR the address with the Read bit.
                                        (1148)     mov   [I2CHW_1_SlaveAddr], A                           ; preserve addr+r/w state for the ISR to use
                                        (1149)     mov   reg[I2CHW_1_DR], A                               ; put the write addr into the I2C_DR reg
                                        (1150)     mov   [I2CHW_1_bStatus],0x00                           ; Clear all flags
                                        (1151)     mov   A, [X+RxMode]                                                             ; place the RxMode in status so ISR can access it
                                        (1152)     mov   [I2CHW_1_bStatus],A
                                        (1153)     ;
                                        (1154)         ;we must now initialize a read buffer using I2CHW_1_InitWrite
                                        (1155)         ;
                                        (1156)         push   X                                                ;preserve since it's used later
                                        (1157)         mov    A, [X+RxByteCount]                               ;get the write buf size
                                        (1158)         push   A
                                        (1159)         push   A                                                                                            ;this will be ignored
                                        (1160)         mov    A, [X+RxArray]                                   ;get the write buf addr
                                        (1161)         push   A
                                        (1162)         mov    X, sp
                                        (1163)         dec    X
                                        (1164)         call  I2CHW_1_InitWrite                            ;sets the addr and byte count to write to
                                        (1165)         add SP, -3
                                        (1166)         pop X                                                   ;restore X to be used for the rest of this routine
                                        (1167) 
                                        (1168)     mov   A,[I2CHW_1_SlaveAddr]
                                        (1169)     tst   [x+RxMode],I2CHW_1_RepStart
                                        (1170)     jnz   DoRestartRxSmm
                                        (1171)     tst   reg[I2CHW_1_SCR], I2C_BYTE_COMPL                 ; indicates the I2C bus is stalled
                                        (1172)     jnz   DoRestartRxSmm
                                        (1173)     call  I2C_DoStart                                      ; Send a start and address.
                                        (1174)     jmp   CheckRxAckSmm
                                        (1175) DoRestartRxSmm:
                                        (1176)     call  I2CHW_1_DoBufferRepeatStart                           ; Send a repeat start and address.
                                        (1177)         ;note that REPEATSTART can only be used if this master currently has control of the bus and is at the end
                                        (1178)         ; of or ending the current data transmission/reception.  This also requres that the software (this UM)
                                        (1179)         ; as a whole be able to detect that a stop has not been sent previously in this transmission.
                                        (1180) 
                                        (1181) CheckRxAckSmm:                                                ; Test to see if Slave ACKed
                                        (1182)         ;nothing to do here, a start and address are being transmitted, wait for the ISR to pick up, when it
                                        (1183)         ;is finished.
                                        (1184) ;End_RD:
                                        (1185)     ret
                                        (1186) 
                                        (1187) .ENDSECTION
                                        (1188) 
                                        (1189) .SECTION
                                        (1190) ;-----------------------------------------------------------------------------
                                        (1191) ;  FUNCTION NAME: I2CHW_1_bWriteBytes
                                        (1192) ;
                                        (1193) ;  DESCRIPTION:
                                        (1194) ;    Write multiple data bits to slave device.
                                        (1195) ;
                                        (1196) ;-----------------------------------------------------------------------------
                                        (1197) ;
                                        (1198) ;  ARGUMENTS:
                                        (1199) ;     A => Address of slave
                                        (1200) ;     X => Pointer to other arguments.
                                        (1201) ;   [x] => LSB of Array address to put data in.
                                        (1202) ; [X-1] => MSB of Array address to put data in (ignorned)
                                        (1203) ; [X-2] => Count of bytes to write.
                                        (1204) ; [X-3] => Mode flags that allow the programmer to set flags
                                        (1205) ;          to determine if:
                                        (1206) ;              0x01 => Use RePeatStart instead of Start
                                        (1207) ;              0x02 => Don't send Stop
                                        (1208) ;
                                        (1209) ;
                                        (1210) ;  RETURNS:     None
                                        (1211) ;
                                        (1212) ;  SIDE EFFECTS:
                                        (1213) ;    The A and X registers may be modified by this or future implementations
                                        (1214) ;    of this function.  The same is true for all RAM page pointer registers in
                                        (1215) ;    the Large Memory Model.  When necessary, it is the calling function's
                                        (1216) ;    responsibility to perserve their values across calls to fastcall16 
                                        (1217) ;    functions.
                                        (1218) ;          
                                        (1219) IF	(TOOLCHAIN & HITECH)
                                        (1220) TxArray:      set   0
                                        (1221) TxByteCount:  set  -2
                                        (1222) TxMode:       set  -3
                                        (1223) ELSE
                                        (1224) TxArray:      equ   0
                                        (1225) TxByteCount:  equ  -2
                                        (1226) TxMode:       equ  -3
                                        (1227) ENDIF
                                        (1228) 
                                        (1229)  I2CHW_1_bWriteBytes:
                                        (1230)     push  A
                                        (1231) I2CMSCR_NotReady2Smm:
                                        (1232)         mov    A, [I2CHW_1_RsrcStatus]                     ; test to see if previous command started ISR
                                        (1233)         tst    [I2CHW_1_RsrcStatus], I2CHW_ISR_ACTIVE
                                        (1234)     ;mov   A, reg[I2CHW_1_MSCR]                            ;read the mscr register to look for pending master operations
                                        (1235)     ;and   A, 0x0f                                           ;only look at the lower bits
                                        (1236)           ;For multi master operations, a pening start or restart
                                        (1237)           ;request might be OK, the master might be waiting to
                                        (1238)           ;acquire the bus from another master
                                        (1239)         jnz   I2CMSCR_NotReady2Smm
                                        (1240)     pop   A
                                        (1241)         or    [I2CHW_1_RsrcStatus], I2CHW_ISR_ACTIVE       ; flag set here and cleared at end of ISR
                                        (1242)     asl   A                                                ; Shift address to the left to make
                                        (1243)                                                            ; a complete byte with the R/W bit.
                                        (1244)                                                            ; The ASL takes care of clearing bit 0.
                                        (1245)     mov   [I2CHW_1_bStatus],0x00                           ; Clear all flags
                                        (1246)     mov   [I2CHW_1_SlaveAddr], A                           ; preserve addr+r/w state for the ISR to use
                                        (1247)     mov   reg[I2CHW_1_DR], A                               ; put the write addr into the I2C_DR reg
                                        (1248)     mov   A, [X+TxMode]                                                             ; place the TxMode in status so ISR can access it
                                        (1249)     mov   [I2CHW_1_bStatus],A
                                        (1250)     ;
                                        (1251)         ;we must now initialize a read buffer using I2CHW_1_InitWrite
                                        (1252)         ;
                                        (1253)         push   X                                                ;preserve since it's used later
                                        (1254)         inc    [X+TxByteCount]                                 ;increase this by one since the init routine will decrement it by 1
                                        (1255)                                                                 ;but the ISR understands the original count passed (sigh...)(F.O.E.O.)
                                        (1256)         mov    A, [X+TxByteCount]                               ;get the write buf size
                                        (1257)         push   A
                                        (1258)         push   A                                                                                            ;this will be ignored
                                        (1259)         mov    A, [X+TxArray]                                   ;get the write buf addr
                                        (1260)         push   A
                                        (1261)         mov    X, sp
                                        (1262)         dec    X
                                        (1263)         call  I2CHW_1_InitRamRead                          ;sets the addr and byte count to write to
                                        (1264)         add    SP, -3
                                        (1265)         pop    X                                                ;restore X to be used for the rest of this routine
                                        (1266)     ;and  [I2CHW_1_RsrcStatus],~I2C_READFLASH              ;shouldn't be needed should have been taken care of in InitRamRead routine
                                        (1267) 
                                        (1268) 
                                        (1269)     mov   A,[I2CHW_1_SlaveAddr]
                                        (1270)     tst   [x+TxMode],I2CHW_1_RepStart
                                        (1271)     jnz   DoRestartTxSmm
                                        (1272)     tst   reg[I2CHW_1_SCR], I2C_BYTE_COMPL                 ; indicates the I2C bus is stalled
                                        (1273)     jnz   DoRestartRxSmm
                                        (1274)     call  I2C_DoStart                                      ; Send a start and address.
                                        (1275)     jmp   DoTxAckSmm
                                        (1276) DoRestartTxSmm:
                                        (1277)     call  I2CHW_1_DoBufferRepeatStart                           ; Send a repeat start and address.
                                        (1278) DoTxAckSmm:
                                        (1279) 
                                        (1280) 
                                        (1281) ;WriteSlaveAck:
                                        (1282)     ret
                                        (1283) 
                                        (1284) .ENDSECTION
                                        (1285) 
                                        (1286) .SECTION
                                        (1287) ;-----------------------------------------------------------------------------
                                        (1288) ;  FUNCTION NAME: I2CHW_1_bWriteCBytes
                                        (1289) ;
                                        (1290) ;  DESCRIPTION:
                                        (1291) ;    Write multiple data bits to slave device from ROM
                                        (1292) ;
                                        (1293) ;-----------------------------------------------------------------------------
                                        (1294) ;
                                        (1295) ;  ARGUMENTS:
                                        (1296) ;      A => Address of slave
                                        (1297) ;      X => Pointer to other arguments.
                                        (1298) ;     [x] => LSB of ROM Array address to put data in.
                                        (1299) ;   [X-1] => MSB of ROM Array address to put data in (ignorned)
                                        (1300) ;   [X-2] => Count of bytes to write.
                                        (1301) ;   [X-3] => Mode flags that allow the programmer to set flags
                                        (1302) ;            to determine if:
                                        (1303) ;               0x01 => Use RepeatStart instead of Start
                                        (1304) ;               0x02 => Don't send Stop
                                        (1305) ;
                                        (1306) ;  RETURNS:
                                        (1307) ;    None
                                        (1308) ;
                                        (1309) ;  SIDE EFFECTS:
                                        (1310) ;    The A and X registers may be modified by this or future implementations
                                        (1311) ;    of this function.  The same is true for all RAM page pointer registers in
                                        (1312) ;    the Large Memory Model.  When necessary, it is the calling function's
                                        (1313) ;    responsibility to perserve their values across calls to fastcall16 
                                        (1314) ;    functions.
                                        (1315) ;          
                                        (1316) IF	(TOOLCHAIN & HITECH)
                                        (1317) TxCArrayLSB:   set   0
                                        (1318) TxCArrayMSB:   set  -1
                                        (1319) TxCByteCount:  set  -2
                                        (1320) TxCMode:       set  -3
                                        (1321) ELSE
                                        (1322) TxCArrayLSB:   equ   0
                                        (1323) TxCArrayMSB:   equ  -1
                                        (1324) TxCByteCount:  equ  -2
                                        (1325) TxCMode:       equ  -3
                                        (1326) ENDIF
                                        (1327) 
                                        (1328)  I2CHW_1_bWriteCBytes:
                                        (1329)     push  A
                                        (1330) I2CMSCR_NotReady3Smm:
                                        (1331)         mov    A, [I2CHW_1_RsrcStatus]                     ; test to see if previous command started ISR
                                        (1332)         tst    [I2CHW_1_RsrcStatus], I2CHW_ISR_ACTIVE
                                        (1333)     ;mov   A, reg[I2CHW_1_MSCR]                            ;read the mscr register to look for pending master operations
                                        (1334)     ;and   A, 0x0f                                           ;only look at the lower bits
                                        (1335)           ;For multi master operations, a pening start or restart
                                        (1336)           ;request might be OK, the master might be waiting to
                                        (1337)           ;acquire the bus from another master
                                        (1338)         jnz   I2CMSCR_NotReady3Smm
                                        (1339)     pop   A
                                        (1340)         or    [I2CHW_1_RsrcStatus], I2CHW_ISR_ACTIVE       ;lag set here but cleared in ISRf
                                        (1341)         asl   A                                                 ; Shift address to the left to make
                                        (1342)                                                            ; a complete byte with the R/W bit.
                                        (1343)                                                            ; The ASL takes care of clearing bit 0.
                                        (1344)     mov   [I2CHW_1_bStatus],0x00                           ; Clear all flags
                                        (1345)     mov   [I2CHW_1_SlaveAddr], A                           ; preserve addr+r/w state for the ISR to use
                                        (1346)     mov   reg[I2CHW_1_DR], A                               ; put the write addr into the I2C_DR reg
                                        (1347)         mov   A, [X+RxMode]                                                             ; place the RxMode in status so ISR can access it
                                        (1348)     mov   [I2CHW_1_bStatus],A
                                        (1349)     ;
                                        (1350)         ;we must now initialize a read buffer using I2CHW_1_InitWrite
                                        (1351)         ;
                                        (1352)         push   X                                                ;preserve X since it's used later
                                        (1353)         mov    A, 0                                             ;get the write buf size (this is the hi order part)
                                        (1354)         inc    [X+TxCByteCount]                                 ;increase this by one since the init routine will decrement it by 1
                                        (1355)         jnc     . + 3                                           ;but the ISR understands the original count passed (sigh...)(F.O.E.O.)
                                        (1356)         inc    A                                                                                        ;if the low order part of the count happened to roll to 0x00, inc the hi part
                                        (1357)         push   A
                                        (1358)         mov    A, [X+TxCByteCount]                              ;initFlasRead needs a 2 byte count this is the low ord byte
                                        (1359)         push   A
                                        (1360)         mov    A, [X+TxCArrayMSB]                               ;get the write buf addr
                                        (1361)         push   A                                                                                        ;this will be ignored
                                        (1362)         mov    A, [X+TxCArrayLSB]                               ;get the write buf addr
                                        (1363)         push   A
                                        (1364)         mov    X, sp
                                        (1365)         dec    X
                                        (1366)         call  I2CHW_1_InitFlashRead                        ;sets the addr and byte count to write to
                                        (1367)         add SP, -4
                                        (1368)         pop X                                                   ;restore X to be used for the rest of this routine
                                        (1369)     ;or  [I2CHW_1_RsrcStatus],I2C_READFLASH
                                        (1370)     mov   A,[I2CHW_1_SlaveAddr]
                                        (1371)     tst   [x+TxMode],I2CHW_1_RepStart                      ; Check if a Start or RepeatStart
                                        (1372)     jnz   DoCRestartTxSmm                                      ; should executed.
                                        (1373)     tst   reg[I2CHW_1_SCR], I2C_BYTE_COMPL                 ; indicates the I2C bus is stalled
                                        (1374)     jnz   DoRestartRxSmm
                                        (1375)     call  I2C_DoStart                                      ; Send a start and address.
                                        (1376)     jmp   DoCTxAckSmm
                                        (1377) DoCRestartTxSmm:
                                        (1378)     call  I2CHW_1_DoBufferRepeatStart                           ; Send a repeat start and address.
                                        (1379) 
                                        (1380) DoCTxAckSmm:                                                   ; Test to see if Slave is ACKed
                                        (1381) 
                                        (1382) ;CWriteSlaveAck:
                                        (1383)         ret
                                        (1384) 
                                        (1385) .ENDSECTION
                                        (1386) 
                                        (1387) 
                                        (1388) ENDIF	 ;SYSTEM_SMALL_MEMORY_MODEL
                                        (1389) 
                                        (1390) ; End of File I2CHW_1.asm
                                        (1391) 
                                        (1392) 
FILE: lib\i2chw_1int.asm                (0001) ;;*****************************************************************************
                                        (0002) ;;*****************************************************************************
                                        (0003) ;;  FILENAME: I2CHW_1INT.asm
                                        (0004) ;;   Version: 2.00, Updated on 2015/3/4 at 22:26:25
                                        (0005) ;;  Generated by PSoC Designer 5.4.3191
                                        (0006) ;;
                                        (0007) ;;  DESCRIPTION: I2CHW Master Interrupt Service Routine
                                        (0008) ;;  This is the interrupt service routine for the Single Master I2C function.
                                        (0009) ;;-----------------------------------------------------------------------------
                                        (0010) ;;  Copyright (c) Cypress Semiconductor 2015. All Rights Reserved.
                                        (0011) ;;*****************************************************************************
                                        (0012) ;;*****************************************************************************
                                        (0013) 
                                        (0014) include "m8c.inc"
                                        (0015) include "memory.inc"
                                        (0016) include "I2CHW_1Common.inc"
                                        (0017) include "I2CHW_1Mstr.inc"
                                        (0018) 
                                        (0019) ;-----------------------------------------------
                                        (0020) ;  Global Symbols
                                        (0021) ;-----------------------------------------------
                                        (0022) 
                                        (0023) export     I2CHW_1_Read_Count
                                        (0024) export    _I2CHW_1_Read_Count
                                        (0025) export     I2CHW_1_Write_Count
                                        (0026) export    _I2CHW_1_Write_Count
                                        (0027) 
                                        (0028) export    pI2CHW_1_Read_BufLO
                                        (0029) export   _pI2CHW_1_Read_BufLO
                                        (0030) export    pI2CHW_1_Write_BufLO
                                        (0031) export   _pI2CHW_1_Write_BufLO
                                        (0032) export    I2CHW_1_RsrcStatus
                                        (0033) export   _I2CHW_1_RsrcStatus
                                        (0034) export    I2CHW_1_SlaveAddr
                                        (0035) export   _I2CHW_1_SlaveAddr
                                        (0036) 
                                        (0037) ;-----------------------------------------------
                                        (0038) ; WARNING: The variables below are deprecated
                                        (0039) ; and have been replaced with Read_BufLO
                                        (0040) ; and Write_BufLO
                                        (0041) ;-----------------------------------------------
                                        (0042) export    pI2CHW_1_Read_Buf
                                        (0043) export   _pI2CHW_1_Read_Buf
                                        (0044) export    pI2CHW_1_Write_Buf
                                        (0045) export   _pI2CHW_1_Write_Buf
                                        (0046) ;-----------------------------------------------
                                        (0047) ; END WARNING
                                        (0048) ;-----------------------------------------------
                                        (0049)  
                                        (0050) area InterruptRAM(RAM, REL, CON)
                                        (0051) 
                                        (0052) ;-----------------------------------------------
                                        (0053) ; Variable Allocation
                                        (0054) ;-----------------------------------------------
                                        (0055) 
                                        (0056)   I2CHW_1_SlaveAddr:
                                        (0057)  _I2CHW_1_SlaveAddr:                         blk      1
                                        (0058)   I2CHW_1_RsrcStatus:
                                        (0059)  _I2CHW_1_RsrcStatus:                        blk     1
                                        (0060)   I2CHW_1_Write_Count:
                                        (0061)  _I2CHW_1_Write_Count:                       blk    1
                                        (0062) IF SYSTEM_LARGE_MEMORY_MODEL
                                        (0063) export    pI2CHW_1_Write_BufHI
                                        (0064) export   _pI2CHW_1_Write_BufHI
                                        (0065) 
                                        (0066)  pI2CHW_1_Write_BufHI:
                                        (0067) _pI2CHW_1_Write_BufHI:                       blk     1
                                        (0068) ENDIF
                                        (0069) ;-----------------------------------------------
                                        (0070) ; WARNING: The variable below is deprecated
                                        (0071) ; and has been replaced Write_BufLO
                                        (0072) ;-----------------------------------------------
                                        (0073)  pI2CHW_1_Write_Buf:
                                        (0074) _pI2CHW_1_Write_Buf:
                                        (0075) ;-----------------------------------------------
                                        (0076) ; END WARNING
                                        (0077) ;-----------------------------------------------
                                        (0078)  pI2CHW_1_Write_BufLO:
                                        (0079) _pI2CHW_1_Write_BufLO:                       blk      1
                                        (0080) 
                                        (0081) IF I2CHW_1_READ_FLASH
                                        (0082) export    pI2CHW_1_Read_BufHI
                                        (0083) export   _pI2CHW_1_Read_BufHI
                                        (0084) 
                                        (0085)  pI2CHW_1_Read_BufHI:
                                        (0086) _pI2CHW_1_Read_BufHI:                        blk     1
                                        (0087) ELSE
                                        (0088) IF SYSTEM_LARGE_MEMORY_MODEL
                                        (0089) export    pI2CHW_1_Read_BufHI
                                        (0090) export   _pI2CHW_1_Read_BufHI
                                        (0091) 
                                        (0092)  pI2CHW_1_Read_BufHI:
                                        (0093) _pI2CHW_1_Read_BufHI:                        blk     1
                                        (0094) ENDIF
                                        (0095) ENDIF
                                        (0096) 
                                        (0097) ;-----------------------------------------------
                                        (0098) ; WARNING: The variable below is deprecated
                                        (0099) ; and has been replaced Read_BufLO
                                        (0100) ;-----------------------------------------------
                                        (0101)  pI2CHW_1_Read_Buf:
                                        (0102) _pI2CHW_1_Read_Buf:
                                        (0103) ;-----------------------------------------------
                                        (0104) ; END WARNING
                                        (0105) ;-----------------------------------------------
                                        (0106)  pI2CHW_1_Read_BufLO:
                                        (0107) _pI2CHW_1_Read_BufLO:                        blk       1
                                        (0108) 
                                        (0109) IF I2CHW_1_READ_FLASH
                                        (0110) export    I2CHW_1_Read_CountHI
                                        (0111) export   _I2CHW_1_Read_CountHI
                                        (0112) 
                                        (0113)  I2CHW_1_Read_CountHI:
                                        (0114) _I2CHW_1_Read_CountHI:                       blk    1
                                        (0115) ENDIF
                                        (0116) 
                                        (0117)  I2CHW_1_Read_Count:
                                        (0118) _I2CHW_1_Read_Count:                         blk      1
                                        (0119) 
                                        (0120) ;@PSoC_UserCode_INIT@ (Do not change this line.)
                                        (0121) ;---------------------------------------------------
                                        (0122) ; Insert your custom declarations below this banner
                                        (0123) ;---------------------------------------------------
                                        (0124) 
                                        (0125) ;------------------------
                                        (0126) ; Includes
                                        (0127) ;------------------------
                                        (0128) 
                                        (0129) 	
                                        (0130) ;------------------------
                                        (0131) ;  Constant Definitions
                                        (0132) ;------------------------
                                        (0133) 
                                        (0134) 
                                        (0135) ;------------------------
                                        (0136) ; Variable Allocation
                                        (0137) ;------------------------
                                        (0138) 
                                        (0139) 
                                        (0140) ;---------------------------------------------------
                                        (0141) ; Insert your custom declarations above this banner
                                        (0142) ;---------------------------------------------------
                                        (0143) ;@PSoC_UserCode_END@ (Do not change this line.)
                                        (0144) 
                                        (0145) 
                                        (0146) 
                                        (0147) AREA UserModules (ROM, REL)
                                        (0148) 
                                        (0149) 
                                        (0150) export _I2CHW_1_ISR
                                        (0151) ;;****************************************************
                                        (0152) ;; I2C_MASTER  main entry point from vector 60h
                                        (0153) ;;
                                        (0154) ;;****************************************************
                                        (0155) 
                                        (0156) 
                                        (0157) _I2CHW_1_ISR:
05DB: 08       PUSH  A                  (0158)     push A
05DC: 10       PUSH  X                  (0159)     push X
05DD: 5D D3    MOV   A,REG[0xD3]        
05DF: 08       PUSH  A                  
                                        (0160) IF SYSTEM_LARGE_MEMORY_MODEL
                                        (0161)     REG_PRESERVE IDX_PP
                                        (0162) ENDIF
                                        (0163)     
                                        (0164)     ; Stop trap is not recommended because the stop bit cannot be cleared
                                        (0165)     ; User may choose to enable it
                                        (0166)     ; Add code to handle stop condition here
                                        (0167) 
05E0: 49 D7 08 TST   REG[0xD7],0x8      (0168)     tst reg[I2CHW_1_SCR], I2C_ADDRIN
05E3: A0 18    JZ    0x05FC             (0169)     jz DataState
                                        (0170)     ;test for a start condition sent out, or bus error, ack from slave, or (lost arb & addr)
                                        (0171) AddrState:
05E5: 49 D9 01 TST   REG[0xD9],0x1      (0172)     tst reg[I2CHW_1_MSCR], I2CM_SNDSTRT
05E8: B0 2F    JNZ   0x0618             (0173)     jnz NoStart
05EA: 49 D7 02 TST   REG[0xD7],0x2      (0174)     tst reg[I2CHW_1_SCR], ( I2C_LST_BIT )                  ;must be a zero or no slave answered
05ED: B0 1E    JNZ   0x060C             (0175)     jnz SlaveAddrNAK
                                        (0176)                                                            ;slave must have acked here
                                        (0177)                                                            
05EF: 47 01 01 TST   [0x1],0x1          (0178)     tst [I2CHW_1_SlaveAddr], 01                            ;bit 0 = 1 then read (from slave and put it in RAM,
                                        (0179)                                                            ;bit 0 = 0 then write to slave and get it from RAM or Flash
05F2: B0 2E    JNZ   0x0621             (0180)     jnz I2C_ReadSlave1stByte                               ;bit 0 was 1
05F4: 80 A7    JMP   0x069C             (0181)     jmp I2C_WriteSlave1stByte                              ;bit 0 was 0
05F6: 18       POP   A                  
05F7: 60 D3    MOV   REG[0xD3],A        
                                        (0182) IF SYSTEM_LARGE_MEMORY_MODEL
                                        (0183)     REG_RESTORE IDX_PP
                                        (0184) ENDIF
05F9: 20       POP   X                  (0185)     pop X
05FA: 18       POP   A                  (0186)     pop A
05FB: 7E       RETI                     (0187)     reti
                                        (0188) 
                                        (0189) DataState:
05FC: 2E 02 80 OR    [0x2],0x80         (0190)     or [I2CHW_1_RsrcStatus], I2CHW_ISR_ACTIVE
05FF: 47 01 01 TST   [0x1],0x1          (0191)     tst [I2CHW_1_SlaveAddr], 01                            ;bit 0 = 1 then read, bit 0 = 0 then write
0602: B0 2D    JNZ   0x0630             (0192)     jnz I2C_ReadSlave                                      ;bit 0 was 1
                                        (0193) 
                                        (0194) StillDataToWrite:
0604: 80 9D    JMP   0x06A2             (0195)     jmp I2C_WriteSlave                                     ;bit 0 was 0
0606: 18       POP   A                  
0607: 60 D3    MOV   REG[0xD3],A        
                                        (0196) IF SYSTEM_LARGE_MEMORY_MODEL
                                        (0197)     REG_RESTORE IDX_PP
                                        (0198) ENDIF
0609: 20       POP   X                  (0199)     pop X
060A: 18       POP   A                  (0200)     pop A
060B: 7E       RETI                     (0201)     reti
060C: 62 D7 00 MOV   REG[0xD7],0x0      
                                        (0202) 
                                        (0203) 
                                        (0204) SlaveAddrNAK:
                                        (0205)     ;;
                                        (0206)     ;; all there is to do here is to return, the slave didn't respond so it's not there or needs
                                        (0207)     ;; to be tried later.
                                        (0208)     ;;
                                        (0209) ;@PSoC_UserCode_BODY4@ (Do not change this line.)
                                        (0210) ;---------------------------------------------------
                                        (0211) ; Insert your custom code below this banner
                                        (0212) ; to modify the way a NAK from a slave is handled
                                        (0213) ; possibly set a user defined status
                                        (0214) ;---------------------------------------------------
                                        (0215) 
                                        (0216) ;********************************************************
                                        (0217) ; End user I2C Buffered WRITE (to RAM) Customization
                                        (0218) ;********************************************************
                                        (0219) ;@PSoC_UserCode_END@ (Do not change this line.)
                                        (0220) ;
                                        (0221) ;;  CONTROL MACRO- writes to the SCR register and accounts for clock speed adjustments if necessary
                                        (0222) ;
                                        (0223)     SetI2CHW_1_SCR 0     ;sets the tx/rx bit to receive, generates a stop without sending any data
                                        (0224) 
060F: 26 02 7F AND   [0x2],0x7F         (0225)     and [I2CHW_1_RsrcStatus], ~I2CHW_ISR_ACTIVE
0612: 18       POP   A                  
0613: 60 D3    MOV   REG[0xD3],A        
                                        (0226) 
                                        (0227) IF SYSTEM_LARGE_MEMORY_MODEL
                                        (0228)     REG_RESTORE IDX_PP
                                        (0229) ENDIF
0615: 20       POP   X                  (0230)     pop X
0616: 18       POP   A                  (0231)     pop A
0617: 7E       RETI                     (0232)     reti
                                        (0233) 
                                        (0234) NoStart:
                                        (0235)     ;here might test loss of arbitration and the presence of an address bit indicating that the
                                        (0236)     ;Master is being addressed as a slave.
                                        (0237)     ;;
                                        (0238)     ;; there may be a need to indicate that there was a Master transmission
                                        (0239)     ;; failure or an unsuccessful attempt.
                                        (0240)     ;;
0618: 26 02 7F AND   [0x2],0x7F         (0241)     and [I2CHW_1_RsrcStatus], ~I2CHW_ISR_ACTIVE
061B: 18       POP   A                  
061C: 60 D3    MOV   REG[0xD3],A        
                                        (0242) IF SYSTEM_LARGE_MEMORY_MODEL
                                        (0243)     REG_RESTORE IDX_PP
                                        (0244) ENDIF
061E: 20       POP   X                  (0245)     pop X
061F: 18       POP   A                  (0246)     pop A
0620: 7E       RETI                     (0247)     reti
                                        (0248) 
                                        (0249) I2C_ReadSlave1stByte:
0621: 2E 02 80 OR    [0x2],0x80         (0250)     or [I2CHW_1_RsrcStatus], I2CHW_ISR_ACTIVE
0624: 26 02 FB AND   [0x2],0xFB         (0251)     and [I2CHW_1_RsrcStatus], ~I2CHW_RD_COMPLETE
0627: 62 D7 00 MOV   REG[0xD7],0x0      
062A: 18       POP   A                  
062B: 60 D3    MOV   REG[0xD3],A        
                                        (0252) 
                                        (0253) ;read normal data in from slave immediately after the address is sent, there is no data to read
                                        (0254) ;but the bus is stalled at byte complete
                                        (0255) 
                                        (0256) ;
                                        (0257) ;;  CONTROL MACRO- writes to the SCR register and accounts for clock speed adjustments if necessary
                                        (0258) ;
                                        (0259)     SetI2CHW_1_SCR 0     ;sets the tx/rx bit to receive, and clocks a byte in
                                        (0260) 
                                        (0261) 
                                        (0262) IF SYSTEM_LARGE_MEMORY_MODEL
                                        (0263)     REG_RESTORE IDX_PP
                                        (0264) ENDIF
062D: 20       POP   X                  (0265)     pop X
062E: 18       POP   A                  (0266)     pop A
062F: 7E       RETI                     (0267)     reti
                                        (0268) 
                                        (0269) I2C_ReadSlave:                                             ;this is just a normal read
                                        (0270) 
                                        (0271) 
                                        (0272) ;;code snipped from old SW I2C below
                                        (0273) ;
                                        (0274) ; MASTER READ from SLAVE
                                        (0275) ; (and writing to it's own RAM--Write_Buf and Write_Cnt)
                                        (0276) ;
                                        (0277) ;@PSoC_UserCode_BODY1_V1.2@ (Do not change this line.)
                                        (0278) ;---------------------------------------------------
                                        (0279) ; Insert your custom code below this banner
                                        (0280) ;---------------------------------------------------
                                        (0281) 
                                        (0282) ;********************************************************
                                        (0283) ; By modifying the section from here down to the next comment block
                                        (0284) ; a user could process data for a custom I2C Master Read (write to RAM) application
                                        (0285) ; NOTE: I2C handshakes (ACK/NAK may be effected by any introduced bugs)
                                        (0286) ;********************************************************
0630: 47 00 04 TST   [0x0],0x4          (0287)    tst   [I2CHW_1_bStatus], fI2C_NAKnextWr
0633: B0 14    JNZ   0x0648             (0288)    jnz   InStoreData
                                        (0289)    ;
                                        (0290)    ;process write data here
                                        (0291)    ;
0635: 7A 03    DEC   [0x3]              (0292)    dec   [I2CHW_1_Write_Count]
0637: C0 4F    JC    0x0687             (0293)    jc    CompleteRDXfer                                              ; carry set if value became -1
                                        (0294)    ;jz    InStoreData                                                                                             ;In theory overflow cant happen but stop the transaction anyway.
0639: 3C 03 00 CMP   [0x3],0x0          (0295)    cmp   [I2CHW_1_Write_Count], 00                                   ;set nak flag, dec count, and store data
063C: A0 03    JZ    0x0640             (0296)    jz    InNakNextByte
063E: 80 06    JMP   0x0645             (0297)    jmp   InNotBufEnd
                                        (0298) InNakNextByte:                                                       ;set the nakflag in I2CHW_1_bStatus
0640: 2E 00 04 OR    [0x0],0x4          (0299)    or    [I2CHW_1_bStatus], fI2C_NAKnextWr
0643: 80 04    JMP   0x0648             (0300)    jmp   InStoreData
                                        (0301) InNotBufEnd:
0645: 26 00 FB AND   [0x0],0xFB         (0302)    and   [I2CHW_1_bStatus], ~fI2C_NAKnextWr                          ;clear the nak flag in case it was set from a previous operation
                                        (0303) InStoreData:
                                        (0304)    ;This is the ONLY place this bit is set  This bit should never be cleared by the isr ONLY by the API ClrWrStatus()
0648: 2E 02 10 OR    [0x2],0x10         (0305)    or    [I2CHW_1_RsrcStatus], I2CHW_WR_NOERR                        ;set current status
                                        (0306) IF SYSTEM_LARGE_MEMORY_MODEL
064B: 51 04    MOV   A,[0x4]            (0307)    mov   A, [pI2CHW_1_Write_BufHI]
064D: 60 D3    MOV   REG[0xD3],A        
                                        (0308) ENDIF
                                        (0309)    RAM_SETPAGE_IDX A
064F: 58 05    MOV   X,[0x5]            (0310)    mov   X, [pI2CHW_1_Write_BufLO]
0651: 5D D8    MOV   A,REG[0xD8]        (0311)    mov   A, reg[I2CHW_1_DR]
0653: 70 3F    AND   F,0x3F             
0655: 71 80    OR    F,0x80             
                                        (0312)    RAM_CHANGE_PAGE_MODE FLAG_PGMODE_10b
0657: 54 00    MOV   [X+0],A            (0313)    mov   [X], A
0659: 70 3F    AND   F,0x3F             
065B: 71 00    OR    F,0x0              
                                        (0314)    RAM_CHANGE_PAGE_MODE FLAG_PGMODE_00b
065D: 76 05    INC   [0x5]              (0315)    inc   [pI2CHW_1_Write_BufLO]
                                        (0316) 
065F: 47 00 04 TST   [0x0],0x4          (0317)    tst   [I2CHW_1_bStatus], fI2C_NAKnextWr
0662: B0 0A    JNZ   0x066D             (0318)    jnz   NAK_this_one
0664: 62 D7 10 MOV   REG[0xD7],0x10     
0667: 18       POP   A                  
0668: 60 D3    MOV   REG[0xD3],A        
                                        (0319) 
                                        (0320) ;********************************************************
                                        (0321) ; End user I2C Buffered WRITE (to RAM) Customization
                                        (0322) ;********************************************************
                                        (0323) ;@PSoC_UserCode_END@ (Do not change this line.)
                                        (0324) ;;code snipped form SW I2C to maintain api compatibility above
                                        (0325) 
                                        (0326) ;
                                        (0327) ;;  CONTROL MACRO- writes to the SCR register and accounts for clock speed adjustments if necessary
                                        (0328) ;
                                        (0329)     SetI2CHW_1_SCR I2C_ACKOUT                                        ;send Ack
                                        (0330) 
                                        (0331) 
                                        (0332) IF SYSTEM_LARGE_MEMORY_MODEL
                                        (0333)     REG_RESTORE IDX_PP
                                        (0334) ENDIF
066A: 20       POP   X                  (0335)     pop X
066B: 18       POP   A                  (0336)     pop A
066C: 7E       RETI                     (0337)     reti
                                        (0338) 
                                        (0339) NAK_this_one:
                                        (0340) 
066D: 26 00 FB AND   [0x0],0xFB         (0341)     and  [I2CHW_1_bStatus], ~fI2C_NAKnextWr
                                        (0342) 
                                        (0343)     ; *****
                                        (0344)     ; here we may need to look at the mode that this was called under
                                        (0345)     ; what does the user want done on the last byte.  Could be a send restart...
                                        (0346)     ; ******
0670: 26 02 F8 AND   [0x2],0xF8         (0347)     and   [I2CHW_1_RsrcStatus], ~0x07                                ;clear the read status bits
0673: 2E 02 01 OR    [0x2],0x1          (0348)     or    [I2CHW_1_RsrcStatus], I2CHW_RD_NOERR
0676: 2E 02 04 OR    [0x2],0x4          (0349)     or    [I2CHW_1_RsrcStatus], I2CHW_RD_COMPLETE
                                        (0350) 
0679: 26 00 03 AND   [0x0],0x3          (0351)     and [I2CHW_1_bStatus], (I2CHW_1_RepStart | I2CHW_1_NoStop)
067C: A0 0A    JZ    0x0687             (0352)     jz      CompleteRDXfer
067E: 26 02 7F AND   [0x2],0x7F         (0353)     and   [I2CHW_1_RsrcStatus], ~I2CHW_ISR_ACTIVE
0681: 18       POP   A                  
0682: 60 D3    MOV   REG[0xD3],A        
                                        (0354) IF SYSTEM_LARGE_MEMORY_MODEL
                                        (0355)     REG_RESTORE IDX_PP
                                        (0356) ENDIF
0684: 20       POP   X                  (0357)     pop X
0685: 18       POP   A                  (0358)     pop A
0686: 7E       RETI                     (0359)     reti
0687: 62 D7 00 MOV   REG[0xD7],0x0      
                                        (0360)     ;if neither a repeat start or a NoStop, then this must be a CompleteXfer request.
                                        (0361)     ;The NAK (not I2C_SNDACK) bit in I2C_SCR below will automatically generate a stop
                                        (0362) 
                                        (0363) CompleteRDXfer:
                                        (0364) 
                                        (0365) ;
                                        (0366) ;;  CONTROL MACRO- writes to the SCR register and accounts for clock speed adjustments if necessary
                                        (0367) ;
                                        (0368)     SetI2CHW_1_SCR 0                                                 ;send Ack
                                        (0369) 
                                        (0370) 
068A: 26 02 7F AND   [0x2],0x7F         (0371)     and   [I2CHW_1_RsrcStatus], ~I2CHW_ISR_ACTIVE
068D: 18       POP   A                  
068E: 60 D3    MOV   REG[0xD3],A        
                                        (0372) IF SYSTEM_LARGE_MEMORY_MODEL
                                        (0373)     REG_RESTORE IDX_PP
                                        (0374) ENDIF
0690: 20       POP   X                  (0375)     pop X
0691: 18       POP   A                  (0376)     pop A
0692: 7E       RETI                     (0377)     reti                                                             ;return and wait for the next interrupt (on data)
0693: 62 D7 10 MOV   REG[0xD7],0x10     
0696: 18       POP   A                  
0697: 60 D3    MOV   REG[0xD3],A        
                                        (0378) 
                                        (0379) AckTheRead:
                                        (0380) 
                                        (0381) ;
                                        (0382) ;;  CONTROL MACRO- writes to the SCR register and accounts for clock speed adjustments if necessary
                                        (0383) ;
                                        (0384)     SetI2CHW_1_SCR I2C_ACKOUT                                        ;send Ack
                                        (0385) 
                                        (0386) IF SYSTEM_LARGE_MEMORY_MODEL
                                        (0387)     REG_RESTORE IDX_PP
                                        (0388) ENDIF
0699: 20       POP   X                  (0389)     pop X
069A: 18       POP   A                  (0390)     pop A
069B: 7E       RETI                     (0391)     reti
                                        (0392) 
                                        (0393) 
                                        (0394) I2C_WriteSlave1stByte:
                                        (0395) ;write normal data to slave
069C: 26 02 BF AND   [0x2],0xBF         (0396)     and [I2CHW_1_RsrcStatus], ~I2CHW_WR_COMPLETE
069F: 2E 02 80 OR    [0x2],0x80         (0397)     or [I2CHW_1_RsrcStatus], I2CHW_ISR_ACTIVE
                                        (0398) 
                                        (0399) 
                                        (0400) I2C_WriteSlave:
                                        (0401) 
06A2: 49 D7 02 TST   REG[0xD7],0x2      (0402)     tst reg[I2CHW_1_SCR], ( I2C_LST_BIT )                  ;must be a zero or no slave answered
06A5: B0 4C    JNZ   0x06F2             (0403)     jnz SlaveDataNAK
06A7: 50 04    MOV   A,0x4              (0404)     mov A, (I2C_TX)
06A9: 08       PUSH  A                  (0405)     push A
                                        (0406) 
                                        (0407) ;
                                        (0408) ;MASTER is WRITING TO SLAVE (& reading data from ram or flash buffer)
                                        (0409) ;
                                        (0410) ;;code snipped from SW I2C below
                                        (0411) 
                                        (0412) I2C_ObtainOutData:
                                        (0413) 
                                        (0414) 
                                        (0415) ;********************************************************
                                        (0416) ; here we need to get the next data to output (master-read)
                                        (0417) ; also set the status byte for use on exit
                                        (0418) ;********************************************************
                                        (0419) IF I2CHW_1_READ_FLASH
                                        (0420) ;@PSoC_UserCode_BODY2_V1.2@ (Do not change this line.)
                                        (0421) ;---------------------------------------------------
                                        (0422) ; Insert your custom code below this banner
                                        (0423) ; to modify the way a master might read non-volitile data
                                        (0424) ; to send.
                                        (0425) ;---------------------------------------------------
                                        (0426) 
                                        (0427)     tst  [I2CHW_1_RsrcStatus],I2CHW_READFLASH
                                        (0428)     jz   ReadOutData
                                        (0429) 
                                        (0430)     ;
                                        (0431)     ;get the data
                                        (0432)     ;
                                        (0433)     mov  X, [pI2CHW_1_Read_BufLO]
                                        (0434)     mov  A, [pI2CHW_1_Read_BufHI]
                                        (0435)     romx
                                        (0436)     mov  reg[I2CHW_1_DR],A
                                        (0437)     dec  [I2CHW_1_Read_Count]                                        ;calc addr lsb
                                        (0438)     jnc  NoDecHighCount
                                        (0439)     dec  [I2CHW_1_Read_CountHI]
                                        (0440) 
                                        (0441)     jc   MstrWRComplete
                                        (0442) 
                                        (0443) NoDecHighCount:
                                        (0444) 
                                        (0445)     inc  [pI2CHW_1_Read_BufLO]                                       ;set the next flash address to read
                                        (0446)     jnc  NoIncHiAddr
                                        (0447)     inc  [pI2CHW_1_Read_BufHI]
                                        (0448) NoIncHiAddr:
                                        (0449)    jmp   I2CNormalOutput
                                        (0450) ;
                                        (0451) ;****** THERE SHOULD BE NO WAY TO REACH THIS STATE WE'LL JUST TERMINATE THE ACTIVITY SINCE WERE THE MASTER
                                        (0452) ;********    MAY LEAVE IT IN TO DEAL WITH MULTI MASTER SLAVE CONFIGS THOUGH BUT NOT IN THIS FILE
                                        (0453) ;
                                        (0454) ;FlashRdOverflow:
                                        (0455)     ;deal with the over flow cond by resending last data byte (dec the low addr)
                                        (0456) 
                                        (0457) ;   or    [I2CHW_1_RsrcStatus], I2CHW_RD_OVERFLOW
                                        (0458) ;                                                                      ;set count back to 0
                                        (0459) ;   mov   [I2CHW_1_Read_CountHI], 0                                  ;functionally the same as incrementing ffff and less instructions
                                        (0460) ;   mov   [I2CHW_1_Read_Count], 0
                                        (0461) ;   jmp   I2CNormalRead
                                        (0462) 
                                        (0463) ;---------------------------------------------------
                                        (0464) ; Insert your custom code above this banner
                                        (0465) ;---------------------------------------------------
                                        (0466) ;@PSoC_UserCode_END@ (Do not change this line.)
                                        (0467) 
                                        (0468) ENDIF
                                        (0469) ;@PSoC_UserCode_BODY3@ (Do not change this line.)
                                        (0470) ;---------------------------------------------------
                                        (0471) ; Insert your custom code below this banner
                                        (0472) ; to modify the way a master might read RAM data to send
                                        (0473) ; to an I2C device
                                        (0474) ; By replacing the section from here down to the next block
                                        (0475) ; a user could process data for a custom I2C READ application
                                        (0476) ;---------------------------------------------------
                                        (0477) ReadOutData:
                                        (0478)    ;read the current data byte
                                        (0479) IF SYSTEM_LARGE_MEMORY_MODEL
06AA: 51 06    MOV   A,[0x6]            (0480)    mov   A, [pI2CHW_1_Read_BufHI]
06AC: 60 D3    MOV   REG[0xD3],A        
                                        (0481) ENDIF
                                        (0482)    RAM_SETPAGE_IDX A
06AE: 58 07    MOV   X,[0x7]            (0483)    mov   X, [pI2CHW_1_Read_BufLO]
06B0: 70 3F    AND   F,0x3F             
06B2: 71 80    OR    F,0x80             
                                        (0484)    RAM_CHANGE_PAGE_MODE FLAG_PGMODE_10b
06B4: 52 00    MOV   A,[X+0]            (0485)    mov   A, [X]
06B6: 70 3F    AND   F,0x3F             
06B8: 71 00    OR    F,0x0              
                                        (0486)    RAM_CHANGE_PAGE_MODE FLAG_PGMODE_00b
06BA: 60 D8    MOV   REG[0xD8],A        (0487)    mov   reg[I2CHW_1_DR], A
06BC: 7A 08    DEC   [0x8]              (0488)    dec   [I2CHW_1_Read_Count]
                                        (0489) 
06BE: C0 0E    JC    0x06CD             (0490)    jc    MstrWRComplete
06C0: 76 07    INC   [0x7]              (0491)    inc   [pI2CHW_1_Read_BufLO]
06C2: 80 01    JMP   0x06C4             (0492)    jmp   I2CNormalOutput
                                        (0493) ;
                                        (0494) ;ram read overflow detected here, just resend the last location in the buffer
                                        (0495) ;
                                        (0496) ;********        THERE SHOULD BE NO WAY TO OVERFLOW FOR THIS CASE
                                        (0497) ;********    MAY LEAVE IT IN TO DEAL WITH MULTI MASTER SLAVE CONFIGS THOUGH BUT NOT IN THIS FILE
                                        (0498) ;
                                        (0499) ;RamRDOverflow:
                                        (0500) ;   or    [I2CHW_1_RsrcStatus], I2CHW_RD_OVERFLOW
                                        (0501) ;   inc   [I2CHW_1_Read_Count]                                       ; set back to zero
                                        (0502) 
                                        (0503) ;---------------------------------------------------
                                        (0504) ; End user I2C MASTER WRITE TO SLAVE /READ buffer customization section
                                        (0505) ; Insert your custom code above this banner
                                        (0506) ;---------------------------------------------------
                                        (0507) ;@PSoC_UserCode_END@ (Do not change this line.)
                                        (0508) ;;code snipped form SW I2C to maintain api compatibility above
                                        (0509) I2CNormalOutput:
                                        (0510) 
                                        (0511)     ;load the bits to set in the I2C_ISR from the stack, The proper bit pattern was previously determined
                                        (0512)     ;and place there based on whether or not the previous transmission was our I2C address.
06C4: 18       POP   A                  (0513)     pop   A
06C5: 60 D7    MOV   REG[0xD7],A        
06C7: 18       POP   A                  
06C8: 60 D3    MOV   REG[0xD3],A        
                                        (0514) 
                                        (0515) ;
                                        (0516) ;;  CONTROL MACRO- writes to the SCR register and accounts for clock speed adjustments if necessary
                                        (0517) ;
                                        (0518)     SetI2CHW_1_SCR A                                                 ;Sets the I2C_TX bit in the I2C_SCR reg.
                                        (0519) 
                                        (0520) 
                                        (0521) IF SYSTEM_LARGE_MEMORY_MODEL
                                        (0522)     REG_RESTORE IDX_PP
                                        (0523) ENDIF
06CA: 20       POP   X                  (0524)     pop X
06CB: 18       POP   A                  (0525)     pop A
06CC: 7E       RETI                     (0526)     reti ;return and wait for the next interrupt (on data)
                                        (0527) 
                                        (0528) MstrWRComplete:
06CD: 26 02 8F AND   [0x2],0x8F         (0529)     and   [I2CHW_1_RsrcStatus], ~0x70                                ;clear the write status bits
06D0: 2E 02 40 OR    [0x2],0x40         (0530)     or    [I2CHW_1_RsrcStatus], I2CHW_WR_COMPLETE
06D3: 2E 02 10 OR    [0x2],0x10         (0531)     or    [I2CHW_1_RsrcStatus], I2CHW_WR_NOERR
                                        (0532) 
                                        (0533)     ; *****
                                        (0534)     ; here we may need to look at the mode that this was called under
                                        (0535)     ; what does the user want done on the last byte.  Could be a send restart...
                                        (0536)     ; ******
06D6: 26 00 03 AND   [0x0],0x3          (0537)     and [I2CHW_1_bStatus], (I2CHW_1_RepStart | I2CHW_1_NoStop)
06D9: A0 0B    JZ    0x06E5             (0538)     jz      CompleteWRXfer
06DB: 18       POP   A                  (0539)     pop  A                                                           ;clear the stack for return
06DC: 26 02 7F AND   [0x2],0x7F         (0540)     and  [I2CHW_1_RsrcStatus], ~I2CHW_ISR_ACTIVE
06DF: 18       POP   A                  
06E0: 60 D3    MOV   REG[0xD3],A        
                                        (0541) 
                                        (0542) IF SYSTEM_LARGE_MEMORY_MODEL
                                        (0543)     REG_RESTORE IDX_PP
                                        (0544) ENDIF
06E2: 20       POP   X                  (0545)     pop X
06E3: 18       POP   A                  (0546)     pop A
06E4: 7E       RETI                     (0547)     reti
                                        (0548)     ;if neither a repeat start or a NoStop, then this must be a CompleteXfer request.
                                        (0549)     ; The release of the I2C_TX bit in I2C_SCR below will automatically generate a stop
                                        (0550) 
                                        (0551) CompleteWRXfer:
                                        (0552) 
06E5: 18       POP   A                  (0553)     pop   A
06E6: 62 D7 00 MOV   REG[0xD7],0x0      
                                        (0554) 
                                        (0555) ;
                                        (0556) ;;  CONTROL MACRO- writes to the SCR register and accounts for clock speed adjustments if necessary
                                        (0557) ;
                                        (0558)     SetI2CHW_1_SCR 0                                                 ;this will release the bus and generate a stop condition
                                        (0559) 
06E9: 26 02 7F AND   [0x2],0x7F         (0560)    and  [I2CHW_1_RsrcStatus], ~I2CHW_ISR_ACTIVE
06EC: 18       POP   A                  
06ED: 60 D3    MOV   REG[0xD3],A        
                                        (0561) IF SYSTEM_LARGE_MEMORY_MODEL
                                        (0562)    REG_RESTORE IDX_PP
                                        (0563) ENDIF
06EF: 20       POP   X                  (0564)    pop X
06F0: 18       POP   A                  (0565)    pop A
06F1: 7E       RETI                     (0566)    reti
                                        (0567) 
                                        (0568) SlaveDataNAK:
                                        (0569) ;must also fix up the data buffer.  While it is marginally safe to nak a byte as a slave and 
                                        (0570) ;store it.  It is NEVER safe as a master to notice that a written byte has been nak'ed by a 
                                        (0571) ;slave and fail to resend it.
                                        (0572) ;this piece of code fixes up the count and buffer that the master is using to get data from
                                        (0573) ;to re-transmit the byte when the next master write is done.
06F2: 76 08    INC   [0x8]              (0574)     inc  [I2CHW_1_Read_Count]                          ;calc addr lsb
                                        (0575) IF I2CHW_1_READ_FLASH
                                        (0576)     jnc  NoIncHighCount
                                        (0577)     inc  [I2CHW_1_Read_CountHI]
                                        (0578) 
                                        (0579) NoIncHighCount:
                                        (0580) ENDIF
06F4: 7A 07    DEC   [0x7]              (0581)     dec  [pI2CHW_1_Read_BufLO]                         ;set the next flash address to read
                                        (0582) IF SYSTEM_LARGE_MEMORY_MODEL
06F6: D0 03    JNC   0x06FA             (0583)     jnc  NoDecHiAddr
06F8: 7A 06    DEC   [0x6]              (0584)     dec  [pI2CHW_1_Read_BufHI]
06FA: 62 D7 00 MOV   REG[0xD7],0x0      
                                        (0585) NoDecHiAddr:
                                        (0586) ELSE
                                        (0587) IF I2CHW_1_READ_FLASH
                                        (0588)     jnc  NoDecHiCAddr
                                        (0589)     dec  [pI2CHW_1_Read_BufHI]
                                        (0590) NoDecHiCAddr:
                                        (0591) ENDIF
                                        (0592) ENDIF
                                        (0593) 
                                        (0594) ;;
                                        (0595) ;; all there is to do here is to return & set status, the slave didn't want any more data
                                        (0596) ;;
                                        (0597) ; no pop needed because the nak is detected before the push happens above
                                        (0598) 
                                        (0599) ;
                                        (0600) ;;  CONTROL MACRO- writes to the SCR register and accounts for clock speed adjustments if necessary
                                        (0601) ;
                                        (0602)     SetI2CHW_1_SCR 0                                                 ;this will release the bus and generate a stop condition
                                        (0603) 
06FD: 26 02 7F AND   [0x2],0x7F         (0604)     and [I2CHW_1_RsrcStatus], ~I2CHW_ISR_ACTIVE
0700: 26 02 8F AND   [0x2],0x8F         (0605)     and   [I2CHW_1_RsrcStatus], ~0x70                                ;clear the write status bits
0703: 2E 02 40 OR    [0x2],0x40         (0606)     or    [I2CHW_1_RsrcStatus], I2CHW_WR_COMPLETE
0706: 2E 02 20 OR    [0x2],0x20         (0607)     or    [I2CHW_1_RsrcStatus], I2CHW_WR_OVERFLOW
0709: 18       POP   A                  
070A: 60 D3    MOV   REG[0xD3],A        
                                        (0608) IF SYSTEM_LARGE_MEMORY_MODEL
                                        (0609)     REG_RESTORE IDX_PP
                                        (0610) ENDIF
070C: 20       POP   X                  (0611)     pop X
070D: 18       POP   A                  (0612)     pop A
070E: 7E       RETI                     (0613)    reti
                                        (0614) 
                                        (0615) STOPTRAP:
                                        (0616)     ;
                                        (0617)     ;   If interrupt on STOP condition is enabled:
                                        (0618)     ;   Add user code to process stop (not recommended becuase I2C bus is NOT stalled and ISR
                                        (0619)     ;   may block reception of ongoing transactions/addresses
                                        (0620)     ;   STOP condition is never detected when a repeat start is used by the master.
                                        (0621)     ;
070F: 26 02 7F AND   [0x2],0x7F         (0622)     and [I2CHW_1_RsrcStatus], ~I2CHW_ISR_ACTIVE
0712: 18       POP   A                  
0713: 60 D3    MOV   REG[0xD3],A        
                                        (0623) IF SYSTEM_LARGE_MEMORY_MODEL
                                        (0624)     REG_RESTORE IDX_PP
                                        (0625) ENDIF
0715: 20       POP   X                  (0626)     pop X
0716: 18       POP   A                  (0627)     pop A
0717: 7E       RETI                     (0628)     reti
                                        (0629) 
                                        (0630) ; end of file I2CHW_1INT.asm
FILE: lib\i2chw_1common.asm             (0001) ;;*****************************************************************************
                                        (0002) ;;*****************************************************************************
                                        (0003) ;;  FILENAME: I2CHW_1Common.asm
                                        (0004) ;;   Version: 2.00, Updated on 2015/3/4 at 22:26:25
                                        (0005) ;;  Generated by PSoC Designer 5.4.3191
                                        (0006) ;;
                                        (0007) ;;  DESCRIPTION: I2Cs User Module software implementation file
                                        (0008) ;;
                                        (0009) ;;  NOTE: User Module APIs conform to the fastcall16 convention for marshalling
                                        (0010) ;;        arguments and observe the associated "Registers are volatile" policy.
                                        (0011) ;;        This means it is the caller's responsibility to preserve any values
                                        (0012) ;;        in the X and A registers that are still needed after the API functions
                                        (0013) ;;        returns. For Large Memory Model devices it is also the caller's 
                                        (0014) ;;        responsibility to perserve any value in the CUR_PP, IDX_PP, MVR_PP and 
                                        (0015) ;;        MVW_PP registers. Even though some of these registers may not be modified
                                        (0016) ;;        now, there is no guarantee that will remain the case in future releases.
                                        (0017) ;;-----------------------------------------------------------------------------
                                        (0018) ;;  Copyright (c) Cypress Semiconductor 2015. All Rights Reserved.
                                        (0019) ;;*****************************************************************************
                                        (0020) ;;*****************************************************************************
                                        (0021) 
                                        (0022) include "m8c.inc"
                                        (0023) include "memory.inc"
                                        (0024) include "I2CHW_1Common.inc"
                                        (0025) 
                                        (0026) ;-----------------------------------------------
                                        (0027) ; include instance specific register definitions
                                        (0028) ;-----------------------------------------------
                                        (0029) 
                                        (0030) ;-----------------------------------------------
                                        (0031) ;  Global Symbols
                                        (0032) ;-----------------------------------------------
                                        (0033) ;-------------------------------------------------------------------
                                        (0034) ;  Declare the functions global for both assembler and C compiler.
                                        (0035) ;
                                        (0036) ;  Note that there are two names for each API. First name is
                                        (0037) ;  assembler reference. Name with underscore is name refence for
                                        (0038) ;  C compiler.  Calling function in C source code does not require
                                        (0039) ;  the underscore.
                                        (0040) ;-------------------------------------------------------------------
                                        (0041) 
                                        (0042) export    I2CHW_1_InitWrite
                                        (0043) export   _I2CHW_1_InitWrite
                                        (0044) export    I2CHW_1_InitRamRead
                                        (0045) export   _I2CHW_1_InitRamRead
                                        (0046) export    I2CHW_1_InitFlashRead
                                        (0047) export   _I2CHW_1_InitFlashRead
                                        (0048) export    I2CHW_1_bReadI2CStatus
                                        (0049) export   _I2CHW_1_bReadI2CStatus
                                        (0050) export    I2CHW_1_ClrRdStatus
                                        (0051) export   _I2CHW_1_ClrRdStatus
                                        (0052) export    I2CHW_1_ClrWrStatus
                                        (0053) export   _I2CHW_1_ClrWrStatus
                                        (0054) 
                                        (0055) 
                                        (0056) AREA UserModules (ROM, REL)
                                        (0057) 
                                        (0058) 
                                        (0059) .SECTION
                                        (0060) ;-----------------------------------------------------------------------------
                                        (0061) ;  FUNCTION NAME: I2CHW_1_InitWrite
                                        (0062) ;
                                        (0063) ;  DESCRIPTION:
                                        (0064) ;     Initializes a data buffer pointer for the slave to use to deposit data, and
                                        (0065) ;     zeroes the value of a count byte for the same buffer.
                                        (0066) ;
                                        (0067) ;-----------------------------------------------------------------------------
                                        (0068) ;
                                        (0069) ;  ARGUMENTS:  [SP-5]   -- count of bytes to write
                                        (0070) ;              [SP-4]   -- Hi order part of address Wrbuf
                                        (0071) ;              [SP-3]   -- Low order part of the address Wrbuf 
                                        (0072) ;
                                        (0073) ;  RETURNS:  none
                                        (0074) ;
                                        (0075) ;    Write Status bits are cleared
                                        (0076) ;
                                        (0077) ;  SIDE EFFECTS:
                                        (0078) ;    The A and X registers may be modified by this or future implementations
                                        (0079) ;    of this function.  The same is true for all RAM page pointer registers in
                                        (0080) ;    the Large Memory Model.  When necessary, it is the calling function's
                                        (0081) ;    responsibility to perserve their values across calls to fastcall16 
                                        (0082) ;    functions.
                                        (0083) ;          
                                        (0084) ;    Currently only the page pointer registers listed below are modified: 
                                        (0085) ;          CUR_PP
                                        (0086) ;
                                        (0087) ;    Write Status bits are cleared
                                        (0088) ;
                                        (0089) ;  THEORY of OPERATION or PROCEDURE:
                                        (0090) ;     The C compiler will always place a 0 (the upper order byte of the address pointer) in
                                        (0091) ;     the accumulator.  X register is the low order pointer.
                                        (0092) ;     IF a one byte buffer is established, set a flag to NAK the first written data byte.
                                        (0093) ;
                                        (0094) 
                                        (0095)  I2CHW_1_InitWrite:
                                        (0096) _I2CHW_1_InitWrite:
                                        (0097) 
                                        (0098) WrCnt:   equ -5
                                        (0099) WrBufHi: equ -4
                                        (0100) WrBufLo: equ -3
                                        (0101) 
                                        (0102) 	RAM_PROLOGUE RAM_USE_CLASS_4
                                        (0103)     RAM_PROLOGUE RAM_USE_CLASS_2
0718: 10       PUSH  X                  (0104) 	push  X
0719: 4F       MOV   X,SP               (0105) 	mov   X, SP
071A: 79       DEC   X                  (0106)     dec   X                                                          ;set up the pointer for correct param access
071B: 08       PUSH  A                  (0107)     push  A
071C: 5D DE    MOV   A,REG[0xDE]        (0108)     mov   A, reg[I2CHW_1_INT_REG]
071E: 08       PUSH  A                  (0109)     push  A                                                           ;preserve flags prior to disabling int
071F: 41 DE FE AND   REG[0xDE],0xFE     
0722: 62 D0 00 MOV   REG[0xD0],0x0      
                                        (0110)     M8C_DisableIntMask I2CHW_1_INT_REG, I2CHW_1_INT_MASK
                                        (0111) 
                                        (0112)     RAM_SETPAGE_CUR >I2CHW_1_bStatus						                           ;Set the Page Pointer for LMM
0725: 26 00 FB AND   [0x0],0xFB         (0113)     and    [I2CHW_1_bStatus], ~fI2C_NAKnextWr                        ;reset the nak-next-written-byte flag.
                                        (0114) IF SYSTEM_LARGE_MEMORY_MODEL
0728: 52 FC    MOV   A,[X-4]            (0115)     mov   A, [X + WrBufHi]                                           ;move wrbuf addr to A
072A: 53 04    MOV   [0x4],A            (0116)     mov   [pI2CHW_1_Write_BufHI], A
                                        (0117) ENDIF
072C: 52 FD    MOV   A,[X-3]            (0118)     mov   A, [X + WrBufLo]                                           ;move wrbuf addr to A
072E: 53 05    MOV   [0x5],A            (0119)     mov   [pI2CHW_1_Write_BufLO], A
0730: 52 FB    MOV   A,[X-5]            (0120)     mov   A, [X + WrCnt]                                               ;move Write_count to A
0732: 53 03    MOV   [0x3],A            (0121)     mov   [I2CHW_1_Write_Count], A
0734: 39 01    CMP   A,0x1              (0122)     cmp   A, 01                                                        ;if data buffer is one byte long or less
0736: A0 08    JZ    0x073F             (0123)     jz    I2CHW_1_SetNak
0738: C0 06    JC    0x073F             (0124)     jc    I2CHW_1_SetNak
073A: 26 02 8F AND   [0x2],0x8F         (0125)     and   [I2CHW_1_RsrcStatus], ~0x70                                ;clear the 0x10, 0x20 (Write status bits)
073D: 80 09    JMP   0x0747             (0126)     jmp   I2Cs_1_ResetFlgs
                                        (0127) 
                                        (0128) I2CHW_1_SetNak:
073F: 2E 00 04 OR    [0x0],0x4          (0129)     or    [I2CHW_1_bStatus], fI2C_NAKnextWr                          ;set the nak-next-written-byte flag.
0742: 26 02 8F AND   [0x2],0x8F         (0130)     and   [I2CHW_1_RsrcStatus], ~0x70                                ; clear the 0x10, 0x20 (Write status bits)
0745: 80 01    JMP   0x0747             (0131)     jmp   I2Cs_1_ResetFlgs
                                        (0132) 
                                        (0133) I2Cs_1_ResetFlgs:
0747: 18       POP   A                  (0134)     pop A
0748: 21 01    AND   A,0x1              (0135)     and A, I2CHW_1_INT_MASK                                                ; Only enable if it was previously enabled
074A: A0 04    JZ    0x074F             (0136)     jz  . + 5
074C: 43 DE 01 OR    REG[0xDE],0x1      
                                        (0137)     M8C_EnableIntMask I2CHW_1_INT_REG, I2CHW_1_INT_MASK
074F: 18       POP   A                  (0138)     pop A
0750: 20       POP   X                  (0139)     pop X
0751: 70 3F    AND   F,0x3F             
0753: 71 C0    OR    F,0xC0             
                                        (0140) 	RAM_EPILOGUE RAM_USE_CLASS_4
                                        (0141)     RAM_EPILOGUE RAM_USE_CLASS_2
0755: 7F       RET                      (0142)     ret
0756: 62 D0 00 MOV   REG[0xD0],0x0      
                                        (0143) 
                                        (0144) .ENDSECTION
                                        (0145) 
                                        (0146) .SECTION
                                        (0147) ;-----------------------------------------------------------------------------
                                        (0148) ;  FUNCTION NAME: I2CHW_1_InitRamRead
                                        (0149) ;
                                        (0150) ;  DESCRIPTION:
                                        (0151) ;     Initializes a data buffer pointer for the slave to use to retrieve data from,
                                        (0152) ;     and zeroes the value of a count byte for the same buffer.
                                        (0153) ;
                                        (0154) ;-----------------------------------------------------------------------------
                                        (0155) ;
                                        (0156) ;  ARGUMENTS:  [SP-5]  -- count of bytes to read
                                        (0157) ;              [SP-4]  -- Hi order part of addr to ReadBuf
                                        (0158) ;              [SP-3]  -- Low order part of the address to ReadBuf
                                        (0159) ;
                                        (0160) ;  RETURNS: none
                                        (0161) ;
                                        (0162) ;  SIDE EFFECTS:
                                        (0163) ;    The A and X registers may be modified by this or future implementations
                                        (0164) ;    of this function.  The same is true for all RAM page pointer registers in
                                        (0165) ;    the Large Memory Model.  When necessary, it is the calling function's
                                        (0166) ;    responsibility to perserve their values across calls to fastcall16 
                                        (0167) ;    functions.
                                        (0168) ;          
                                        (0169) ;    Currently only the page pointer registers listed below are modified: 
                                        (0170) ;          CUR_PP
                                        (0171) ;
                                        (0172) ;     Read Status bits are cleared
                                        (0173) ;
                                        (0174) ;  THEORY of OPERATION or PROCEDURE:
                                        (0175) ;     The C compiler will always place a 0 (the upper order byte of the address pointer) in
                                        (0176) ;     the accumulator.  X register is the low order pointer.
                                        (0177) ;
                                        (0178) 
                                        (0179)  I2CHW_1_InitRamRead:
                                        (0180) _I2CHW_1_InitRamRead:
                                        (0181) 
                                        (0182) RdCnt:     equ   -5
                                        (0183) RdBufHi:   equ   -4
                                        (0184) RdBufLo:   equ   -3
                                        (0185) 
                                        (0186)     RAM_PROLOGUE RAM_USE_CLASS_2
                                        (0187) 	RAM_PROLOGUE RAM_USE_CLASS_4
                                        (0188) 	RAM_SETPAGE_CUR >I2CHW_1_Read_Count
0759: 10       PUSH  X                  (0189)     push  X
075A: 4F       MOV   X,SP               (0190) 	mov   X, SP
075B: 79       DEC   X                  (0191)     dec   X                                                          ;set up the pointer for correct param access
075C: 08       PUSH  A                  (0192)     push  A
075D: 5D DE    MOV   A,REG[0xDE]        (0193)     mov   A, reg[I2CHW_1_INT_REG]
075F: 08       PUSH  A                  (0194)     push  A                                                            ;preserve flags prior to disabling int
0760: 41 DE FE AND   REG[0xDE],0xFE     
                                        (0195)     M8C_DisableIntMask I2CHW_1_INT_REG, I2CHW_1_INT_MASK
                                        (0196) 
                                        (0197) IF SYSTEM_LARGE_MEMORY_MODEL
0763: 52 FC    MOV   A,[X-4]            (0198)     mov   A, [X + RdBufHi]                                           ;move wrbuf addr to A
0765: 53 06    MOV   [0x6],A            (0199)     mov   [pI2CHW_1_Read_BufHI], A
                                        (0200) ENDIF
0767: 52 FD    MOV   A,[X-3]            (0201)     mov   A, [X + RdBufLo]                                             ; move rdbuf addr to A
0769: 53 07    MOV   [0x7],A            (0202)     mov   [pI2CHW_1_Read_BufLO], A
076B: 52 FB    MOV   A,[X-5]            (0203)     mov   A, [X + RdCnt]                                               ; move RamRead_count to A
076D: 53 08    MOV   [0x8],A            (0204)     mov   [I2CHW_1_Read_Count], A
076F: 7A 08    DEC   [0x8]              (0205)     dec   [I2CHW_1_Read_Count]                                       ; since we decrement through zero...
0771: 26 02 F0 AND   [0x2],0xF0         (0206)     and   [I2CHW_1_RsrcStatus], ~0x0f                                ; clear the lower 4 (read status bits)
                                        (0207) 
0774: 18       POP   A                  (0208)     pop A
0775: 21 01    AND   A,0x1              (0209)     and A, I2CHW_1_INT_MASK                                                ; Only enable if it was previously enabled
0777: A0 04    JZ    0x077C             (0210)     jz  . + 5
0779: 43 DE 01 OR    REG[0xDE],0x1      
                                        (0211)     M8C_EnableIntMask I2CHW_1_INT_REG, I2CHW_1_INT_MASK
077C: 18       POP   A                  (0212)     pop A
077D: 20       POP   X                  (0213)     pop X
077E: 70 3F    AND   F,0x3F             
0780: 71 C0    OR    F,0xC0             
                                        (0214) 
                                        (0215)     RAM_EPILOGUE RAM_USE_CLASS_4
                                        (0216)     RAM_EPILOGUE RAM_USE_CLASS_2
0782: 7F       RET                      (0217)     ret
                                        (0218) 
                                        (0219) .ENDSECTION
                                        (0220) 
                                        (0221) .SECTION
                                        (0222) ;-----------------------------------------------------------------------------
                                        (0223) ;  FUNCTION NAME: I2CHW_1_InitFlashRead
                                        (0224) ;
                                        (0225) ;  DESCRIPTION:
                                        (0226) ;     Initializes a flash data buffer pointer for the slave to use to retrieve
                                        (0227) ;     data from, and zeroes the value of a count byte for the same buffer.
                                        (0228) ;
                                        (0229) ;-----------------------------------------------------------------------------
                                        (0230) ;
                                        (0231) ;  ARGUMENTS:  [SP-6]   -- Hi order part of flash Read count
                                        (0232) ;              [SP-5]   -- Low order part of flashRead counts
                                        (0233) ;              [SP-4]   -- Hi order part of the flash buf address
                                        (0234) ;              [SP-3]   -- Lo order part of flash buf address
                                        (0235) ;
                                        (0236) ;  RETURNS:
                                        (0237) ;
                                        (0238) ;  SIDE EFFECTS:
                                        (0239) ;    The A and X registers may be modified by this or future implementations
                                        (0240) ;    of this function.  The same is true for all RAM page pointer registers in
                                        (0241) ;    the Large Memory Model.  When necessary, it is the calling function's
                                        (0242) ;    responsibility to perserve their values across calls to fastcall16 
                                        (0243) ;    functions.
                                        (0244) ;          
                                        (0245) ;    Currently only the page pointer registers listed below are modified: 
                                        (0246) ;          CUR_PP
                                        (0247) ;
                                        (0248) ;    Read Status bits are cleared
                                        (0249) ;
                                        (0250) ;  THEORY of OPERATION or PROCEDURE:
                                        (0251) ;     The C compiler will place the upper order address of the buffer in Acc.
                                        (0252) ;     X register is the low order pointer.  A user module parameter is used to conserve code
                                        (0253) ;     if flash buffers are un-needed.  The API call is left defined and capable of returning in
                                        (0254) ;     either case
                                        (0255) ;
                                        (0256)  I2CHW_1_InitFlashRead:
                                        (0257) _I2CHW_1_InitFlashRead:
                                        (0258) 
                                        (0259) FlRdCntHI:     equ   -6
                                        (0260) FlRdCntLO:     equ   -5
                                        (0261) FlBufAdrHI:    equ   -4
                                        (0262) FlBufAdrLO:    equ   -3
                                        (0263) 
                                        (0264) IF I2CHW_1_READ_FLASH
                                        (0265)     RAM_PROLOGUE RAM_USE_CLASS_4
                                        (0266)     RAM_PROLOGUE RAM_USE_CLASS_2
                                        (0267)     RAM_SETPAGE_CUR >pI2CHW_1_Read_BufLO   
                                        (0268) 	push  X
                                        (0269) 	mov   X, SP
                                        (0270)     dec   X                                                            ;set up the pointer for correct param access
                                        (0271)     push  A
                                        (0272)     mov   A, reg[I2CHW_1_INT_REG]
                                        (0273)     push  A                                                            ;preserve flags prior to disabling int
                                        (0274)     M8C_DisableIntMask I2CHW_1_INT_REG, I2CHW_1_INT_MASK
                                        (0275) 
                                        (0276)     mov   A, [X + FlBufAdrLO]                                          ; move flrdbuf LOaddr to A
                                        (0277)     mov   [pI2CHW_1_Read_BufLO], A
                                        (0278)     mov   A, [X + FlBufAdrHI]                                          ; move flrdbuf HIaddr to A
                                        (0279)     mov   [pI2CHW_1_Read_BufHI], A
                                        (0280)     mov   A, [X + FlRdCntLO]                                           ; move flrdbuf LOcount to A
                                        (0281)     mov   [I2CHW_1_Read_Count], A
                                        (0282)     mov   A, [X + FlRdCntHI]                                           ; move flrdbuf HIcount to A
                                        (0283)     mov   [I2CHW_1_Read_CountHI], A
                                        (0284) 
                                        (0285)     dec   [I2CHW_1_Read_Count]                                       ; since this will count throu zero
                                        (0286)     jnc    . + 4                                                       ; only Read_CountHI if Read_Count rolled to 0xff
                                        (0287)     dec   [I2CHW_1_Read_CountHI]
                                        (0288) 
                                        (0289)     and   [I2CHW_1_RsrcStatus], ~0x07                                ; clear the lower 3 (read status bits)
                                        (0290)     or    [I2CHW_1_RsrcStatus],I2CHW_READFLASH                       ; set the flash status bit
                                        (0291) 
                                        (0292)     pop A
                                        (0293)     and A, I2CHW_1_INT_MASK                                                ; Only enable if it was previously enabled
                                        (0294)     jz  . + 5
                                        (0295)     M8C_EnableIntMask I2CHW_1_INT_REG, I2CHW_1_INT_MASK
                                        (0296)     pop A
                                        (0297) 	pop X
                                        (0298)     RAM_EPILOGUE RAM_USE_CLASS_2
                                        (0299) 	RAM_EPILOGUE RAM_USE_CLASS_4
                                        (0300) ENDIF
0783: 7F       RET                      (0301)     ret
0784: 62 D0 00 MOV   REG[0xD0],0x0      
                                        (0302) 
                                        (0303) .ENDSECTION
                                        (0304) 
                                        (0305) .SECTION
                                        (0306) ;-----------------------------------------------------------------------------
                                        (0307) ;  FUNCTION NAME: I2CHW_1_bReadI2CStatus
                                        (0308) ;
                                        (0309) ;  DESCRIPTION:
                                        (0310) ;     Returns the value in the the RsrcStatus variable.
                                        (0311) ;
                                        (0312) ;-----------------------------------------------------------------------------
                                        (0313) ;
                                        (0314) ;  ARGUMENTS:
                                        (0315) ;
                                        (0316) ;  RETURNS:
                                        (0317) ;     BYTE  bI2CStatus -  status data.  Use the following defined bits
                                        (0318) ;     returned in A.
                                        (0319) ;         I2CHW_RD_NOERR:                   equ 1
                                        (0320) ;         I2CHW_RD_OVERFLOW:                equ 2
                                        (0321) ;         I2CHW_RD_INCOMPLETE:              equ 4
                                        (0322) ;         I2CHW_READFLASH:                  equ 8
                                        (0323) ;         I2CHW_WR_NOERR:                   equ 10h
                                        (0324) ;         I2CHW_WR_OVERFLOW:                equ 20h
                                        (0325) ;         I2CHW_WR_COMPLETE:                equ 40h
                                        (0326) ;         I2CHW_ISR_ACTIVE:                 equ 80h
                                        (0327) ;
                                        (0328) ;  SIDE EFFECTS:
                                        (0329) ;    The A and X registers may be modified by this or future implementations
                                        (0330) ;    of this function.  The same is true for all RAM page pointer registers in
                                        (0331) ;    the Large Memory Model.  When necessary, it is the calling function's
                                        (0332) ;    responsibility to perserve their values across calls to fastcall16 
                                        (0333) ;    functions.
                                        (0334) ;          
                                        (0335) ;    Currently only the page pointer registers listed below are modified: 
                                        (0336) ;          CUR_PP
                                        (0337) ;          
                                        (0338)  I2CHW_1_bReadI2CStatus:
                                        (0339) _I2CHW_1_bReadI2CStatus:
                                        (0340)     RAM_PROLOGUE RAM_USE_CLASS_4
                                        (0341) 	RAM_SETPAGE_CUR >I2CHW_1_RsrcStatus
0787: 51 02    MOV   A,[0x2]            (0342)     mov   A, [I2CHW_1_RsrcStatus]                                    ;return the status in A
                                        (0343)     RAM_EPILOGUE RAM_USE_CLASS_4
0789: 7F       RET                      (0344)     ret
078A: 62 D0 00 MOV   REG[0xD0],0x0      
                                        (0345) 
                                        (0346) .ENDSECTION
                                        (0347) 
                                        (0348) .SECTION
                                        (0349) ;-----------------------------------------------------------------------------
                                        (0350) ;  FUNCTION NAME: I2CHW_1_ClrRdStatus
                                        (0351) ;
                                        (0352) ;  DESCRIPTION:
                                        (0353) ;     Clears the Status bits in the Control/Status register, doesn't alter buffer
                                        (0354) ;     addresses or counts, leaves the Flash/Ram Read bit alone too
                                        (0355) ;
                                        (0356) ;-----------------------------------------------------------------------------
                                        (0357) ;
                                        (0358) ;  ARGUMENTS: none
                                        (0359) ;
                                        (0360) ;  RETURNS: none
                                        (0361) ;
                                        (0362) ;  SIDE EFFECTS:
                                        (0363) ;    The A and X registers may be modified by this or future implementations
                                        (0364) ;    of this function.  The same is true for all RAM page pointer registers in
                                        (0365) ;    the Large Memory Model.  When necessary, it is the calling function's
                                        (0366) ;    responsibility to perserve their values across calls to fastcall16 
                                        (0367) ;    functions.
                                        (0368) ;          
                                        (0369) ;    Currently only the page pointer registers listed below are modified: 
                                        (0370) ;          CUR_PP
                                        (0371) ;          
                                        (0372)  I2CHW_1_ClrRdStatus:
                                        (0373) _I2CHW_1_ClrRdStatus:
                                        (0374)     RAM_PROLOGUE RAM_USE_CLASS_4
                                        (0375) 	RAM_SETPAGE_CUR >I2CHW_1_RsrcStatus
078D: 26 02 F8 AND   [0x2],0xF8         (0376)     and   [I2CHW_1_RsrcStatus], ~0x07                                ; clear the lower 3 (read status bits)
                                        (0377)     RAM_EPILOGUE RAM_USE_CLASS_4
0790: 7F       RET                      (0378)     ret
0791: 62 D0 00 MOV   REG[0xD0],0x0      
                                        (0379) 
                                        (0380) .ENDSECTION
                                        (0381) 
                                        (0382) .SECTION
                                        (0383) ;-----------------------------------------------------------------------------
                                        (0384) ;  FUNCTION NAME: I2CHW_1_ClrWrStatus
                                        (0385) ;
                                        (0386) ;  DESCRIPTION:
                                        (0387) ;     Clears the Status bits in the Control/Status register, doesn't alter buffer
                                        (0388) ;     addresses or counts, leaves the Flash/Ram Read bit alone too
                                        (0389) ;
                                        (0390) ;-----------------------------------------------------------------------------
                                        (0391) ;
                                        (0392) ;  ARGUMENTS: none
                                        (0393) ;
                                        (0394) ;  RETURNS: none
                                        (0395) ;
                                        (0396) ;  SIDE EFFECTS:
                                        (0397) ;    The A and X registers may be modified by this or future implementations
                                        (0398) ;    of this function.  The same is true for all RAM page pointer registers in
                                        (0399) ;    the Large Memory Model.  When necessary, it is the calling function's
                                        (0400) ;    responsibility to perserve their values across calls to fastcall16 
                                        (0401) ;    functions.
                                        (0402) ;          
                                        (0403) ;    Currently only the page pointer registers listed below are modified: 
                                        (0404) ;          CUR_PP
                                        (0405) ;          
                                        (0406)  I2CHW_1_ClrWrStatus:
                                        (0407) _I2CHW_1_ClrWrStatus:
                                        (0408)     RAM_PROLOGUE RAM_USE_CLASS_4
                                        (0409) 	RAM_SETPAGE_CUR >I2CHW_1_RsrcStatus
0794: 26 02 8F AND   [0x2],0x8F         (0410)     and   [I2CHW_1_RsrcStatus], ~0x70                                ; clear bits 10,20 (write status bits)
                                        (0411)     RAM_EPILOGUE RAM_USE_CLASS_4
0797: 7F       RET                      (0412)     ret
                                        (0413) 
                                        (0414) .ENDSECTION
                                        (0415) ; End of File I2CHW_1.asm
FILE: Z:\tmp\Modulio\Proj\V9\PSoC1\lib_modulio\acm1602.c
(0001) //---------------------------------------
(0002) //- ACM1602 16x2 Character Display	-
(0003) //- 	-
(0004) //---------------------------------------
(0005) //
(0006) #define	EXTERN
(0007) #include "Modulio.h"
(0008) #undef EXTERN
(0009) #include "ACM1602.h"
(0010) 
(0011) //----------------------------------------
(0012) //- Initialize ACM1602
(0013) //- I2C Clock should be set to 50KHz
(0014) //- ACM1602
(0015) //- I2C50kH
(0016) //----------------------------------------
(0017) //
(0018) static UINT8 ACM1602_Start(ACM1602 *p)
(0019) {
__UserModules_end|__text_start|acm1602.c:ACM1602_Start:
  stat                 --> X+0
  p                    --> X-5
    0798: 10       PUSH  X
    0799: 4F       MOV   X,SP
    079A: 38 01    ADD   SP,0x1
(0020) 	UINT8 stat;
(0021) 	MI2C_Waitms(15);
    079C: 50 00    MOV   A,0x0
    079E: 08       PUSH  A
    079F: 50 0F    MOV   A,0xF
    07A1: 08       PUSH  A
    07A2: 7C 18 28 LCALL _MI2C_Waitms
    07A5: 38 FE    ADD   SP,0xFE
(0022) 	do {
(0023) 		stat = (p->madrs).WriteByte(&(p->madrs), 0, 0x38);	// Data 8bit 2Lines 5x10dot font
    07A7: 10       PUSH  X
    07A8: 50 38    MOV   A,0x38
    07AA: 08       PUSH  A
    07AB: 50 00    MOV   A,0x0
    07AD: 08       PUSH  A
    07AE: 08       PUSH  A
    07AF: 52 FB    MOV   A,[X-5]
    07B1: 08       PUSH  A
    07B2: 52 FC    MOV   A,[X-4]
    07B4: 08       PUSH  A
    07B5: 62 D0 00 MOV   REG[0xD0],0x0
    07B8: 52 FC    MOV   A,[X-4]
    07BA: 01 06    ADD   A,0x6
    07BC: 53 56    MOV   [__r1],A
    07BE: 52 FB    MOV   A,[X-5]
    07C0: 09 00    ADC   A,0x0
    07C2: 60 D4    MOV   REG[0xD4],A
    07C4: 3E 56    MVI   A,[__r1]
    07C6: 53 57    MOV   [__r0],A
    07C8: 3E 56    MVI   A,[__r1]
    07CA: 5C       MOV   X,A
    07CB: 51 57    MOV   A,[__r0]
    07CD: 7C 19 B7 LCALL __plcall
    07D0: 38 FB    ADD   SP,0xFB
    07D2: 62 D0 00 MOV   REG[0xD0],0x0
    07D5: 20       POP   X
    07D6: 54 00    MOV   [X+0],A
(0024) 		if (stat == MI2C_WRITE_ERR)
    07D8: 3D 00 FF CMP   [X+0],0xFF
    07DB: B0 03    JNZ   0x07DF
(0025) 			break;
    07DD: 80 FF    JMP   0x08DD
(0026) 		MI2C_Waitms(5);
    07DF: 50 00    MOV   A,0x0
    07E1: 08       PUSH  A
    07E2: 50 05    MOV   A,0x5
    07E4: 08       PUSH  A
    07E5: 7C 18 28 LCALL _MI2C_Waitms
    07E8: 38 FE    ADD   SP,0xFE
(0027) 		stat = (p->madrs).WriteByte(&(p->madrs), 0, 0x0c);	// Display, No cursor
    07EA: 10       PUSH  X
    07EB: 50 0C    MOV   A,0xC
    07ED: 08       PUSH  A
    07EE: 50 00    MOV   A,0x0
    07F0: 08       PUSH  A
    07F1: 08       PUSH  A
    07F2: 52 FB    MOV   A,[X-5]
    07F4: 08       PUSH  A
    07F5: 52 FC    MOV   A,[X-4]
    07F7: 08       PUSH  A
    07F8: 62 D0 00 MOV   REG[0xD0],0x0
    07FB: 52 FC    MOV   A,[X-4]
    07FD: 01 06    ADD   A,0x6
    07FF: 53 56    MOV   [__r1],A
    0801: 52 FB    MOV   A,[X-5]
    0803: 09 00    ADC   A,0x0
    0805: 60 D4    MOV   REG[0xD4],A
    0807: 3E 56    MVI   A,[__r1]
    0809: 53 57    MOV   [__r0],A
    080B: 3E 56    MVI   A,[__r1]
    080D: 5C       MOV   X,A
    080E: 51 57    MOV   A,[__r0]
    0810: 7C 19 B7 LCALL __plcall
    0813: 38 FB    ADD   SP,0xFB
    0815: 62 D0 00 MOV   REG[0xD0],0x0
    0818: 20       POP   X
    0819: 54 00    MOV   [X+0],A
(0028) 		if (stat == MI2C_WRITE_ERR)
    081B: 3D 00 FF CMP   [X+0],0xFF
    081E: B0 03    JNZ   0x0822
(0029) 			break;
    0820: 80 BC    JMP   0x08DD
(0030) 		MI2C_Waitms(5);
    0822: 50 00    MOV   A,0x0
    0824: 08       PUSH  A
    0825: 50 05    MOV   A,0x5
    0827: 08       PUSH  A
    0828: 7C 18 28 LCALL _MI2C_Waitms
    082B: 38 FE    ADD   SP,0xFE
(0031) 		stat = (p->madrs).WriteByte(&(p->madrs), 0, 0x01);	// Clear Display
    082D: 10       PUSH  X
    082E: 50 01    MOV   A,0x1
    0830: 08       PUSH  A
    0831: 50 00    MOV   A,0x0
    0833: 08       PUSH  A
    0834: 08       PUSH  A
    0835: 52 FB    MOV   A,[X-5]
    0837: 08       PUSH  A
    0838: 52 FC    MOV   A,[X-4]
    083A: 08       PUSH  A
    083B: 62 D0 00 MOV   REG[0xD0],0x0
    083E: 52 FC    MOV   A,[X-4]
    0840: 01 06    ADD   A,0x6
    0842: 53 56    MOV   [__r1],A
    0844: 52 FB    MOV   A,[X-5]
    0846: 09 00    ADC   A,0x0
    0848: 60 D4    MOV   REG[0xD4],A
    084A: 3E 56    MVI   A,[__r1]
    084C: 53 57    MOV   [__r0],A
    084E: 3E 56    MVI   A,[__r1]
    0850: 5C       MOV   X,A
    0851: 51 57    MOV   A,[__r0]
    0853: 7C 19 B7 LCALL __plcall
    0856: 38 FB    ADD   SP,0xFB
    0858: 62 D0 00 MOV   REG[0xD0],0x0
    085B: 20       POP   X
    085C: 54 00    MOV   [X+0],A
(0032) 		if (stat == MI2C_WRITE_ERR)
    085E: 3D 00 FF CMP   [X+0],0xFF
    0861: B0 03    JNZ   0x0865
(0033) 			break;
    0863: 80 79    JMP   0x08DD
(0034) 		MI2C_Waitms(5);
    0865: 50 00    MOV   A,0x0
    0867: 08       PUSH  A
    0868: 50 05    MOV   A,0x5
    086A: 08       PUSH  A
    086B: 7C 18 28 LCALL _MI2C_Waitms
    086E: 38 FE    ADD   SP,0xFE
(0035) 		stat = (p->madrs).WriteByte(&(p->madrs), 0, 0x02);	// Set DDRAM Address to 00H
    0870: 10       PUSH  X
    0871: 50 02    MOV   A,0x2
    0873: 08       PUSH  A
    0874: 50 00    MOV   A,0x0
    0876: 08       PUSH  A
    0877: 08       PUSH  A
    0878: 52 FB    MOV   A,[X-5]
    087A: 08       PUSH  A
    087B: 52 FC    MOV   A,[X-4]
    087D: 08       PUSH  A
    087E: 62 D0 00 MOV   REG[0xD0],0x0
    0881: 52 FC    MOV   A,[X-4]
    0883: 01 06    ADD   A,0x6
    0885: 53 56    MOV   [__r1],A
    0887: 52 FB    MOV   A,[X-5]
    0889: 09 00    ADC   A,0x0
    088B: 60 D4    MOV   REG[0xD4],A
    088D: 3E 56    MVI   A,[__r1]
    088F: 53 57    MOV   [__r0],A
    0891: 3E 56    MVI   A,[__r1]
    0893: 5C       MOV   X,A
    0894: 51 57    MOV   A,[__r0]
    0896: 7C 19 B7 LCALL __plcall
    0899: 38 FB    ADD   SP,0xFB
    089B: 62 D0 00 MOV   REG[0xD0],0x0
    089E: 20       POP   X
    089F: 54 00    MOV   [X+0],A
(0036) 		if (stat == MI2C_WRITE_ERR)
    08A1: 3D 00 FF CMP   [X+0],0xFF
    08A4: B0 03    JNZ   0x08A8
(0037) 			break;
    08A6: 80 36    JMP   0x08DD
(0038) 		MI2C_Waitms(5);
    08A8: 50 00    MOV   A,0x0
    08AA: 08       PUSH  A
    08AB: 50 05    MOV   A,0x5
    08AD: 08       PUSH  A
    08AE: 7C 18 28 LCALL _MI2C_Waitms
    08B1: 38 FE    ADD   SP,0xFE
(0039) 		stat = p->Clear(p);
    08B3: 10       PUSH  X
    08B4: 52 FB    MOV   A,[X-5]
    08B6: 08       PUSH  A
    08B7: 52 FC    MOV   A,[X-4]
    08B9: 08       PUSH  A
    08BA: 62 D0 00 MOV   REG[0xD0],0x0
    08BD: 52 FC    MOV   A,[X-4]
    08BF: 01 13    ADD   A,0x13
    08C1: 53 56    MOV   [__r1],A
    08C3: 52 FB    MOV   A,[X-5]
    08C5: 09 00    ADC   A,0x0
    08C7: 60 D4    MOV   REG[0xD4],A
    08C9: 3E 56    MVI   A,[__r1]
    08CB: 53 57    MOV   [__r0],A
    08CD: 3E 56    MVI   A,[__r1]
    08CF: 5C       MOV   X,A
    08D0: 51 57    MOV   A,[__r0]
    08D2: 7C 19 B7 LCALL __plcall
    08D5: 38 FE    ADD   SP,0xFE
    08D7: 62 D0 00 MOV   REG[0xD0],0x0
    08DA: 20       POP   X
    08DB: 54 00    MOV   [X+0],A
(0040) 		break;
(0041) 	} while(0);
(0042) 	return(stat);
    08DD: 52 00    MOV   A,[X+0]
    08DF: 62 D0 00 MOV   REG[0xD0],0x0
    08E2: 38 FF    ADD   SP,0xFF
    08E4: 20       POP   X
    08E5: 7F       RET   
(0043) }
(0044) 
(0045) 
(0046) //----------------------------------------
(0047) // Set Display Position
(0048) // 
(0049) //----------------------------------------
(0050) //
(0051) static void ACM1602_Position(ACM1602 *p, UINT8 y, UINT8 x)
(0052) {
acm1602.c:ACM1602_Position:
  x                    --> X-7
  y                    --> X-6
  p                    --> X-5
    08E6: 10       PUSH  X
    08E7: 4F       MOV   X,SP
(0053) 	p->Xpos = x & 0xf;		// X-Position is 0-15
    08E8: 62 D0 00 MOV   REG[0xD0],0x0
    08EB: 52 F9    MOV   A,[X-7]
    08ED: 21 0F    AND   A,0xF
    08EF: 53 57    MOV   [__r0],A
    08F1: 52 FC    MOV   A,[X-4]
    08F3: 01 0C    ADD   A,0xC
    08F5: 53 54    MOV   [__r3],A
    08F7: 52 FB    MOV   A,[X-5]
    08F9: 09 00    ADC   A,0x0
    08FB: 60 D5    MOV   REG[0xD5],A
    08FD: 51 57    MOV   A,[__r0]
    08FF: 3F 54    MVI   [__r3],A
(0054) 	p->Ypos = y & 1;		// Y-Position is 0 or 1
    0901: 52 FA    MOV   A,[X-6]
    0903: 21 01    AND   A,0x1
    0905: 53 57    MOV   [__r0],A
    0907: 52 FC    MOV   A,[X-4]
    0909: 01 0D    ADD   A,0xD
    090B: 53 54    MOV   [__r3],A
    090D: 52 FB    MOV   A,[X-5]
    090F: 09 00    ADC   A,0x0
    0911: 60 D5    MOV   REG[0xD5],A
    0913: 51 57    MOV   A,[__r0]
    0915: 3F 54    MVI   [__r3],A
(0055) 	if (p->Ypos == 0)		// if Y-Position is 0
    0917: 52 FC    MOV   A,[X-4]
    0919: 01 0D    ADD   A,0xD
    091B: 53 56    MOV   [__r1],A
    091D: 52 FB    MOV   A,[X-5]
    091F: 09 00    ADC   A,0x0
    0921: 60 D4    MOV   REG[0xD4],A
    0923: 3E 56    MVI   A,[__r1]
    0925: 39 00    CMP   A,0x0
    0927: B0 13    JNZ   0x093B
(0056) 		p->DDRAM_Adrs = 0x00;	// Base-address is 0
    0929: 52 FC    MOV   A,[X-4]
    092B: 01 0E    ADD   A,0xE
    092D: 53 56    MOV   [__r1],A
    092F: 52 FB    MOV   A,[X-5]
    0931: 09 00    ADC   A,0x0
    0933: 60 D5    MOV   REG[0xD5],A
    0935: 50 00    MOV   A,0x0
    0937: 3F 56    MVI   [__r1],A
    0939: 80 14    JMP   0x094E
(0057) 	else	p->DDRAM_Adrs = 0x40;	// Base-address is 0x40
    093B: 62 D0 00 MOV   REG[0xD0],0x0
    093E: 52 FC    MOV   A,[X-4]
    0940: 01 0E    ADD   A,0xE
    0942: 53 56    MOV   [__r1],A
    0944: 52 FB    MOV   A,[X-5]
    0946: 09 00    ADC   A,0x0
    0948: 60 D5    MOV   REG[0xD5],A
    094A: 50 40    MOV   A,0x40
    094C: 3F 56    MVI   [__r1],A
(0058) 	p->DDRAM_Adrs |= p->Xpos;	// Setup DDRAM Address
    094E: 62 D0 00 MOV   REG[0xD0],0x0
    0951: 52 FC    MOV   A,[X-4]
    0953: 01 0E    ADD   A,0xE
    0955: 53 56    MOV   [__r1],A
    0957: 52 FB    MOV   A,[X-5]
    0959: 09 00    ADC   A,0x0
    095B: 53 57    MOV   [__r0],A
    095D: 52 FC    MOV   A,[X-4]
    095F: 01 0C    ADD   A,0xC
    0961: 53 54    MOV   [__r3],A
    0963: 52 FB    MOV   A,[X-5]
    0965: 09 00    ADC   A,0x0
    0967: 60 D4    MOV   REG[0xD4],A
    0969: 3E 54    MVI   A,[__r3]
    096B: 53 55    MOV   [__r2],A
    096D: 51 57    MOV   A,[__r0]
    096F: 60 D4    MOV   REG[0xD4],A
    0971: 3E 56    MVI   A,[__r1]
    0973: 7A 56    DEC   [__r1]
    0975: 2A 55    OR    A,[__r2]
    0977: 53 55    MOV   [__r2],A
    0979: 51 57    MOV   A,[__r0]
    097B: 60 D5    MOV   REG[0xD5],A
    097D: 51 55    MOV   A,[__r2]
    097F: 3F 56    MVI   [__r1],A
    0981: 20       POP   X
    0982: 7F       RET   
(0059) }
(0060) 
(0061) //----------------------------------------
(0062) // Clear Display
(0063) // 
(0064) //----------------------------------------
(0065) //
(0066) static UINT8 ACM1602_Clear(ACM1602 *p)
(0067) {
acm1602.c:ACM1602_Clear:
  stat                 --> X+0
  p                    --> X-5
    0983: 10       PUSH  X
    0984: 4F       MOV   X,SP
    0985: 38 01    ADD   SP,0x1
(0068) 	UINT8 stat;
(0069) 	stat = (p->madrs).WriteByte(&(p->madrs), 0, 0x01);	// Clear Command
    0987: 10       PUSH  X
    0988: 50 01    MOV   A,0x1
    098A: 08       PUSH  A
    098B: 50 00    MOV   A,0x0
    098D: 08       PUSH  A
    098E: 08       PUSH  A
    098F: 52 FB    MOV   A,[X-5]
    0991: 08       PUSH  A
    0992: 52 FC    MOV   A,[X-4]
    0994: 08       PUSH  A
    0995: 62 D0 00 MOV   REG[0xD0],0x0
    0998: 52 FC    MOV   A,[X-4]
    099A: 01 06    ADD   A,0x6
    099C: 53 56    MOV   [__r1],A
    099E: 52 FB    MOV   A,[X-5]
    09A0: 09 00    ADC   A,0x0
    09A2: 60 D4    MOV   REG[0xD4],A
    09A4: 3E 56    MVI   A,[__r1]
    09A6: 53 57    MOV   [__r0],A
    09A8: 3E 56    MVI   A,[__r1]
    09AA: 5C       MOV   X,A
    09AB: 51 57    MOV   A,[__r0]
    09AD: 7C 19 B7 LCALL __plcall
    09B0: 38 FB    ADD   SP,0xFB
    09B2: 62 D0 00 MOV   REG[0xD0],0x0
    09B5: 20       POP   X
    09B6: 54 00    MOV   [X+0],A
(0070) 	if (stat == MI2C_WRITE_ERR)				// 
    09B8: 3D 00 FF CMP   [X+0],0xFF
    09BB: B0 05    JNZ   0x09C1
(0071) 		return(stat);
    09BD: 52 00    MOV   A,[X+0]
    09BF: 80 3A    JMP   0x09FA
(0072) 	MI2C_Waitms(5);
    09C1: 50 00    MOV   A,0x0
    09C3: 08       PUSH  A
    09C4: 50 05    MOV   A,0x5
    09C6: 08       PUSH  A
    09C7: 7C 18 28 LCALL _MI2C_Waitms
    09CA: 38 FE    ADD   SP,0xFE
(0073) 	(p->Position)(p, 0,0);
    09CC: 10       PUSH  X
    09CD: 50 00    MOV   A,0x0
    09CF: 08       PUSH  A
    09D0: 08       PUSH  A
    09D1: 52 FB    MOV   A,[X-5]
    09D3: 08       PUSH  A
    09D4: 52 FC    MOV   A,[X-4]
    09D6: 08       PUSH  A
    09D7: 62 D0 00 MOV   REG[0xD0],0x0
    09DA: 52 FC    MOV   A,[X-4]
    09DC: 01 11    ADD   A,0x11
    09DE: 53 56    MOV   [__r1],A
    09E0: 52 FB    MOV   A,[X-5]
    09E2: 09 00    ADC   A,0x0
    09E4: 60 D4    MOV   REG[0xD4],A
    09E6: 3E 56    MVI   A,[__r1]
    09E8: 53 57    MOV   [__r0],A
    09EA: 3E 56    MVI   A,[__r1]
    09EC: 5C       MOV   X,A
    09ED: 51 57    MOV   A,[__r0]
    09EF: 7C 19 B7 LCALL __plcall
    09F2: 38 FC    ADD   SP,0xFC
    09F4: 20       POP   X
(0074) 	return(stat);
    09F5: 52 00    MOV   A,[X+0]
    09F7: 62 D0 00 MOV   REG[0xD0],0x0
    09FA: 38 FF    ADD   SP,0xFF
    09FC: 20       POP   X
    09FD: 7F       RET   
(0075) 
(0076) }
(0077) 
(0078) //----------------------------------------
(0079) // Write Character
(0080) // 
(0081) //----------------------------------------
(0082) //
(0083) static UINT8 ACM1602_WriteData(ACM1602 *p, UINT8 dat)
(0084) {
acm1602.c:ACM1602_WriteData:
  stat                 --> X+0
  dat                  --> X-6
  p                    --> X-5
    09FE: 10       PUSH  X
    09FF: 4F       MOV   X,SP
    0A00: 38 03    ADD   SP,0x3
(0085) 	UINT8 stat;
(0086) 	stat = MI2C_ACKslave;
    0A02: 56 00 00 MOV   [X+0],0x0
(0087) 	switch(dat) {
    0A05: 52 FA    MOV   A,[X-6]
    0A07: 54 02    MOV   [X+2],A
    0A09: 56 01 00 MOV   [X+1],0x0
    0A0C: 3D 01 00 CMP   [X+1],0x0
    0A0F: B0 06    JNZ   0x0A16
    0A11: 3D 02 0A CMP   [X+2],0xA
    0A14: A0 2E    JZ    0x0A43
    0A16: 3D 01 00 CMP   [X+1],0x0
    0A19: B0 06    JNZ   0x0A20
    0A1B: 3D 02 0D CMP   [X+2],0xD
    0A1E: A0 03    JZ    0x0A22
    0A20: 80 4A    JMP   0x0A6B
(0088) 		case	'\r':	// CR 
(0089) 			ACM1602_Position(p, p->Ypos, 0);	// Go to Lef-end Position
    0A22: 50 00    MOV   A,0x0
    0A24: 08       PUSH  A
    0A25: 62 D0 00 MOV   REG[0xD0],0x0
    0A28: 52 FC    MOV   A,[X-4]
    0A2A: 01 0D    ADD   A,0xD
    0A2C: 53 56    MOV   [__r1],A
    0A2E: 52 FB    MOV   A,[X-5]
    0A30: 09 00    ADC   A,0x0
    0A32: 60 D4    MOV   REG[0xD4],A
    0A34: 3E 56    MVI   A,[__r1]
    0A36: 08       PUSH  A
    0A37: 52 FB    MOV   A,[X-5]
    0A39: 08       PUSH  A
    0A3A: 52 FC    MOV   A,[X-4]
    0A3C: 08       PUSH  A
    0A3D: 9E A7    CALL  acm1602.c:ACM1602_Position
    0A3F: 38 FC    ADD   SP,0xFC
(0090) 			break;					// 
    0A41: 80 EC    JMP   0x0B2E
(0091) 		case	'\n':	// CR+LF
(0092) 			ACM1602_Position(p, (p->Ypos)+1, 0);	// Go to Left-end of next-line
    0A43: 50 00    MOV   A,0x0
    0A45: 08       PUSH  A
    0A46: 62 D0 00 MOV   REG[0xD0],0x0
    0A49: 52 FC    MOV   A,[X-4]
    0A4B: 01 0D    ADD   A,0xD
    0A4D: 53 56    MOV   [__r1],A
    0A4F: 52 FB    MOV   A,[X-5]
    0A51: 09 00    ADC   A,0x0
    0A53: 60 D4    MOV   REG[0xD4],A
    0A55: 3E 56    MVI   A,[__r1]
    0A57: 53 57    MOV   [__r0],A
    0A59: 06 57 01 ADD   [__r0],0x1
    0A5C: 51 57    MOV   A,[__r0]
    0A5E: 08       PUSH  A
    0A5F: 52 FB    MOV   A,[X-5]
    0A61: 08       PUSH  A
    0A62: 52 FC    MOV   A,[X-4]
    0A64: 08       PUSH  A
    0A65: 9E 7F    CALL  acm1602.c:ACM1602_Position
    0A67: 38 FC    ADD   SP,0xFC
(0093) 			break;					// 
    0A69: 80 C4    JMP   0x0B2E
(0094) 		default:
(0095) 			// Set RAM Address
(0096) 			// RAM
(0097) 			stat = (p->madrs).WriteByte(&(p->madrs), 0, 0x80 | p->DDRAM_Adrs);
    0A6B: 62 D0 00 MOV   REG[0xD0],0x0
    0A6E: 52 FC    MOV   A,[X-4]
    0A70: 01 0E    ADD   A,0xE
    0A72: 53 56    MOV   [__r1],A
    0A74: 52 FB    MOV   A,[X-5]
    0A76: 09 00    ADC   A,0x0
    0A78: 60 D4    MOV   REG[0xD4],A
    0A7A: 3E 56    MVI   A,[__r1]
    0A7C: 53 57    MOV   [__r0],A
    0A7E: 2E 57 80 OR    [__r0],0x80
    0A81: 10       PUSH  X
    0A82: 51 57    MOV   A,[__r0]
    0A84: 08       PUSH  A
    0A85: 50 00    MOV   A,0x0
    0A87: 08       PUSH  A
    0A88: 08       PUSH  A
    0A89: 52 FB    MOV   A,[X-5]
    0A8B: 08       PUSH  A
    0A8C: 52 FC    MOV   A,[X-4]
    0A8E: 08       PUSH  A
    0A8F: 52 FC    MOV   A,[X-4]
    0A91: 01 06    ADD   A,0x6
    0A93: 53 56    MOV   [__r1],A
    0A95: 52 FB    MOV   A,[X-5]
    0A97: 09 00    ADC   A,0x0
    0A99: 60 D4    MOV   REG[0xD4],A
    0A9B: 3E 56    MVI   A,[__r1]
    0A9D: 53 57    MOV   [__r0],A
    0A9F: 3E 56    MVI   A,[__r1]
    0AA1: 5C       MOV   X,A
    0AA2: 51 57    MOV   A,[__r0]
    0AA4: 7C 19 B7 LCALL __plcall
    0AA7: 38 FB    ADD   SP,0xFB
    0AA9: 62 D0 00 MOV   REG[0xD0],0x0
    0AAC: 20       POP   X
    0AAD: 54 00    MOV   [X+0],A
(0098) 			if (stat == MI2C_WRITE_ERR)
    0AAF: 3D 00 FF CMP   [X+0],0xFF
(0099) 				break;
    0AB2: A0 7B    JZ    0x0B2E
(0100) 			// Write Data
(0101) 			// 
(0102) 			stat = (p->madrs).WriteByte(&(p->madrs), 0x80, dat);
    0AB4: 10       PUSH  X
    0AB5: 52 FA    MOV   A,[X-6]
    0AB7: 08       PUSH  A
    0AB8: 50 00    MOV   A,0x0
    0ABA: 08       PUSH  A
    0ABB: 50 80    MOV   A,0x80
    0ABD: 08       PUSH  A
    0ABE: 52 FB    MOV   A,[X-5]
    0AC0: 08       PUSH  A
    0AC1: 52 FC    MOV   A,[X-4]
    0AC3: 08       PUSH  A
    0AC4: 62 D0 00 MOV   REG[0xD0],0x0
    0AC7: 52 FC    MOV   A,[X-4]
    0AC9: 01 06    ADD   A,0x6
    0ACB: 53 56    MOV   [__r1],A
    0ACD: 52 FB    MOV   A,[X-5]
    0ACF: 09 00    ADC   A,0x0
    0AD1: 60 D4    MOV   REG[0xD4],A
    0AD3: 3E 56    MVI   A,[__r1]
    0AD5: 53 57    MOV   [__r0],A
    0AD7: 3E 56    MVI   A,[__r1]
    0AD9: 5C       MOV   X,A
    0ADA: 51 57    MOV   A,[__r0]
    0ADC: 7C 19 B7 LCALL __plcall
    0ADF: 38 FB    ADD   SP,0xFB
    0AE1: 62 D0 00 MOV   REG[0xD0],0x0
    0AE4: 20       POP   X
    0AE5: 54 00    MOV   [X+0],A
(0103) 			(p->Position)(p, p->Ypos, p->Xpos+1);
    0AE7: 52 FC    MOV   A,[X-4]
    0AE9: 01 0C    ADD   A,0xC
    0AEB: 53 56    MOV   [__r1],A
    0AED: 52 FB    MOV   A,[X-5]
    0AEF: 09 00    ADC   A,0x0
    0AF1: 60 D4    MOV   REG[0xD4],A
    0AF3: 3E 56    MVI   A,[__r1]
    0AF5: 53 57    MOV   [__r0],A
    0AF7: 06 57 01 ADD   [__r0],0x1
    0AFA: 10       PUSH  X
    0AFB: 51 57    MOV   A,[__r0]
    0AFD: 08       PUSH  A
    0AFE: 52 FC    MOV   A,[X-4]
    0B00: 01 0D    ADD   A,0xD
    0B02: 53 56    MOV   [__r1],A
    0B04: 52 FB    MOV   A,[X-5]
    0B06: 09 00    ADC   A,0x0
    0B08: 60 D4    MOV   REG[0xD4],A
    0B0A: 3E 56    MVI   A,[__r1]
    0B0C: 08       PUSH  A
    0B0D: 52 FB    MOV   A,[X-5]
    0B0F: 08       PUSH  A
    0B10: 52 FC    MOV   A,[X-4]
    0B12: 08       PUSH  A
    0B13: 52 FC    MOV   A,[X-4]
    0B15: 01 11    ADD   A,0x11
    0B17: 53 56    MOV   [__r1],A
    0B19: 52 FB    MOV   A,[X-5]
    0B1B: 09 00    ADC   A,0x0
    0B1D: 60 D4    MOV   REG[0xD4],A
    0B1F: 3E 56    MVI   A,[__r1]
    0B21: 53 57    MOV   [__r0],A
    0B23: 3E 56    MVI   A,[__r1]
    0B25: 5C       MOV   X,A
    0B26: 51 57    MOV   A,[__r0]
    0B28: 7C 19 B7 LCALL __plcall
    0B2B: 38 FC    ADD   SP,0xFC
    0B2D: 20       POP   X
(0104) 			break;
(0105) 	}
(0106) 	return(stat);
    0B2E: 52 00    MOV   A,[X+0]
    0B30: 62 D0 00 MOV   REG[0xD0],0x0
    0B33: 38 FD    ADD   SP,0xFD
    0B35: 20       POP   X
    0B36: 7F       RET   
(0107) }
(0108) 
(0109) 
(0110) //----------------------------------------
(0111) // Print a byte in Hex String
(0112) // 1byte(8bit)16
(0113) //----------------------------------------
(0114) //
(0115) static const UINT8 HexDat[] = {'0','1','2','3','4','5','6','7','8','9','A','B','C','D','E','F'};
(0116) static UINT8 ACM1602_PrHexByte(ACM1602 *p, UINT8 dat)
(0117) {
acm1602.c:ACM1602_PrHexByte:
  c                    --> X+1
  stat                 --> X+0
  dat                  --> X-6
  p                    --> X-5
    0B37: 10       PUSH  X
    0B38: 4F       MOV   X,SP
    0B39: 38 02    ADD   SP,0x2
(0118) 	UINT8 stat, c;
(0119) 	c = (dat >> 4) & 0xf;				// diaplay upper 4 bit in Hex
    0B3B: 52 FA    MOV   A,[X-6]
    0B3D: 62 D0 00 MOV   REG[0xD0],0x0
    0B40: 67       ASR   A
    0B41: 67       ASR   A
    0B42: 67       ASR   A
    0B43: 67       ASR   A
    0B44: 21 0F    AND   A,0xF
    0B46: 21 0F    AND   A,0xF
    0B48: 54 01    MOV   [X+1],A
(0120) 	stat = (p->WriteData)(p, HexDat[c]);		// 4bit 16
    0B4A: 52 01    MOV   A,[X+1]
    0B4C: 53 56    MOV   [__r1],A
    0B4E: 55 57 00 MOV   [__r0],0x0
    0B51: 06 56 A0 ADD   [__r1],0xA0
    0B54: 0E 57 01 ADC   [__r0],0x1
    0B57: 51 57    MOV   A,[__r0]
    0B59: 10       PUSH  X
    0B5A: 58 56    MOV   X,[__r1]
    0B5C: 28       ROMX  
    0B5D: 20       POP   X
    0B5E: 10       PUSH  X
    0B5F: 08       PUSH  A
    0B60: 52 FB    MOV   A,[X-5]
    0B62: 08       PUSH  A
    0B63: 52 FC    MOV   A,[X-4]
    0B65: 08       PUSH  A
    0B66: 52 FC    MOV   A,[X-4]
    0B68: 01 15    ADD   A,0x15
    0B6A: 53 56    MOV   [__r1],A
    0B6C: 52 FB    MOV   A,[X-5]
    0B6E: 09 00    ADC   A,0x0
    0B70: 60 D4    MOV   REG[0xD4],A
    0B72: 3E 56    MVI   A,[__r1]
    0B74: 53 57    MOV   [__r0],A
    0B76: 3E 56    MVI   A,[__r1]
    0B78: 5C       MOV   X,A
    0B79: 51 57    MOV   A,[__r0]
    0B7B: 7C 19 B7 LCALL __plcall
    0B7E: 38 FD    ADD   SP,0xFD
    0B80: 62 D0 00 MOV   REG[0xD0],0x0
    0B83: 20       POP   X
    0B84: 54 00    MOV   [X+0],A
(0121) 	if (stat != MI2C_WRITE_ERR) {
    0B86: 3D 00 FF CMP   [X+0],0xFF
    0B89: A0 43    JZ    0x0BCD
(0122) 		c = dat & 0xf;				// display lower 4 bit in HEX
    0B8B: 52 FA    MOV   A,[X-6]
    0B8D: 21 0F    AND   A,0xF
    0B8F: 54 01    MOV   [X+1],A
(0123) 		stat = (p->WriteData)(p, HexDat[c]);	// 4bit 16
    0B91: 52 01    MOV   A,[X+1]
    0B93: 53 56    MOV   [__r1],A
    0B95: 55 57 00 MOV   [__r0],0x0
    0B98: 06 56 A0 ADD   [__r1],0xA0
    0B9B: 0E 57 01 ADC   [__r0],0x1
    0B9E: 51 57    MOV   A,[__r0]
    0BA0: 10       PUSH  X
    0BA1: 58 56    MOV   X,[__r1]
    0BA3: 28       ROMX  
    0BA4: 20       POP   X
    0BA5: 10       PUSH  X
    0BA6: 08       PUSH  A
    0BA7: 52 FB    MOV   A,[X-5]
    0BA9: 08       PUSH  A
    0BAA: 52 FC    MOV   A,[X-4]
    0BAC: 08       PUSH  A
    0BAD: 52 FC    MOV   A,[X-4]
    0BAF: 01 15    ADD   A,0x15
    0BB1: 53 56    MOV   [__r1],A
    0BB3: 52 FB    MOV   A,[X-5]
    0BB5: 09 00    ADC   A,0x0
    0BB7: 60 D4    MOV   REG[0xD4],A
    0BB9: 3E 56    MVI   A,[__r1]
    0BBB: 53 57    MOV   [__r0],A
    0BBD: 3E 56    MVI   A,[__r1]
    0BBF: 5C       MOV   X,A
    0BC0: 51 57    MOV   A,[__r0]
    0BC2: 7C 19 B7 LCALL __plcall
    0BC5: 38 FD    ADD   SP,0xFD
    0BC7: 62 D0 00 MOV   REG[0xD0],0x0
    0BCA: 20       POP   X
    0BCB: 54 00    MOV   [X+0],A
(0124) 	}
(0125) 	return(stat);
    0BCD: 52 00    MOV   A,[X+0]
    0BCF: 62 D0 00 MOV   REG[0xD0],0x0
    0BD2: 38 FE    ADD   SP,0xFE
    0BD4: 20       POP   X
    0BD5: 7F       RET   
(0126) }
(0127) 
(0128) //----------------------------------------
(0129) // Print a Word(16bit) in Hex String
(0130) // 1 word(16bit)16
(0131) //----------------------------------------
(0132) //
(0133) static UINT8 ACM1602_PrHexInt(ACM1602 *p, UINT16 dat)
(0134) {
acm1602.c:ACM1602_PrHexInt:
  stat                 --> X+0
  dat                  --> X-7
  p                    --> X-5
    0BD6: 10       PUSH  X
    0BD7: 4F       MOV   X,SP
    0BD8: 38 01    ADD   SP,0x1
(0135) 	UINT8 stat;
(0136) 	stat = (p->PrHexByte)(p, (dat >> 8) & 0xff);	// Display Upper 8bit in HEX
    0BDA: 62 D0 00 MOV   REG[0xD0],0x0
    0BDD: 52 F9    MOV   A,[X-7]
    0BDF: 10       PUSH  X
    0BE0: 08       PUSH  A
    0BE1: 52 FB    MOV   A,[X-5]
    0BE3: 08       PUSH  A
    0BE4: 52 FC    MOV   A,[X-4]
    0BE6: 08       PUSH  A
    0BE7: 52 FC    MOV   A,[X-4]
    0BE9: 01 17    ADD   A,0x17
    0BEB: 53 56    MOV   [__r1],A
    0BED: 52 FB    MOV   A,[X-5]
    0BEF: 09 00    ADC   A,0x0
    0BF1: 60 D4    MOV   REG[0xD4],A
    0BF3: 3E 56    MVI   A,[__r1]
    0BF5: 53 57    MOV   [__r0],A
    0BF7: 3E 56    MVI   A,[__r1]
    0BF9: 5C       MOV   X,A
    0BFA: 51 57    MOV   A,[__r0]
    0BFC: 7C 19 B7 LCALL __plcall
    0BFF: 38 FD    ADD   SP,0xFD
    0C01: 62 D0 00 MOV   REG[0xD0],0x0
    0C04: 20       POP   X
    0C05: 54 00    MOV   [X+0],A
(0137) 	if (stat != MI2C_WRITE_ERR) {			// 816
    0C07: 3D 00 FF CMP   [X+0],0xFF
    0C0A: A0 2B    JZ    0x0C36
(0138) 		stat = (p->PrHexByte)(p, dat& 0xff);	// Display lower 8bit in HEX 
    0C0C: 52 FA    MOV   A,[X-6]
    0C0E: 10       PUSH  X
    0C0F: 08       PUSH  A
    0C10: 52 FB    MOV   A,[X-5]
    0C12: 08       PUSH  A
    0C13: 52 FC    MOV   A,[X-4]
    0C15: 08       PUSH  A
    0C16: 52 FC    MOV   A,[X-4]
    0C18: 01 17    ADD   A,0x17
    0C1A: 53 56    MOV   [__r1],A
    0C1C: 52 FB    MOV   A,[X-5]
    0C1E: 09 00    ADC   A,0x0
    0C20: 60 D4    MOV   REG[0xD4],A
    0C22: 3E 56    MVI   A,[__r1]
    0C24: 53 57    MOV   [__r0],A
    0C26: 3E 56    MVI   A,[__r1]
    0C28: 5C       MOV   X,A
    0C29: 51 57    MOV   A,[__r0]
    0C2B: 7C 19 B7 LCALL __plcall
    0C2E: 38 FD    ADD   SP,0xFD
    0C30: 62 D0 00 MOV   REG[0xD0],0x0
    0C33: 20       POP   X
    0C34: 54 00    MOV   [X+0],A
(0139) 	}						// 816
(0140) 	return(stat);
    0C36: 52 00    MOV   A,[X+0]
    0C38: 62 D0 00 MOV   REG[0xD0],0x0
    0C3B: 38 FF    ADD   SP,0xFF
    0C3D: 20       POP   X
    0C3E: 7F       RET   
(0141) }
(0142) 
(0143) //----------------------------------------
(0144) // Print String in RAM
(0145) // RAM
(0146) //----------------------------------------
(0147) //
(0148) static UINT8 ACM1602_PrString(ACM1602 *p, char *sRamString)
(0149) {
acm1602.c:ACM1602_PrString:
  c                    --> X+1
  stat                 --> X+0
  sRamString           --> X-7
  p                    --> X-5
    0C3F: 10       PUSH  X
    0C40: 4F       MOV   X,SP
    0C41: 38 02    ADD   SP,0x2
(0150) 	UINT8 stat,c;
(0151) 	stat = !MI2C_WRITE_ERR;
    0C43: 56 00 00 MOV   [X+0],0x0
    0C46: 80 35    JMP   0x0C7C
(0152) 	while ((c = *sRamString++) != '\0') {		// Repeat until EOS
(0153) 		stat = (p->WriteData)(p,c);		// EOS
    0C48: 10       PUSH  X
    0C49: 52 01    MOV   A,[X+1]
    0C4B: 08       PUSH  A
    0C4C: 52 FB    MOV   A,[X-5]
    0C4E: 08       PUSH  A
    0C4F: 52 FC    MOV   A,[X-4]
    0C51: 08       PUSH  A
    0C52: 62 D0 00 MOV   REG[0xD0],0x0
    0C55: 52 FC    MOV   A,[X-4]
    0C57: 01 15    ADD   A,0x15
    0C59: 53 56    MOV   [__r1],A
    0C5B: 52 FB    MOV   A,[X-5]
    0C5D: 09 00    ADC   A,0x0
    0C5F: 60 D4    MOV   REG[0xD4],A
    0C61: 3E 56    MVI   A,[__r1]
    0C63: 53 57    MOV   [__r0],A
    0C65: 3E 56    MVI   A,[__r1]
    0C67: 5C       MOV   X,A
    0C68: 51 57    MOV   A,[__r0]
    0C6A: 7C 19 B7 LCALL __plcall
    0C6D: 38 FD    ADD   SP,0xFD
    0C6F: 62 D0 00 MOV   REG[0xD0],0x0
    0C72: 20       POP   X
    0C73: 54 00    MOV   [X+0],A
(0154) 		if (stat == MI2C_WRITE_ERR)
    0C75: 3D 00 FF CMP   [X+0],0xFF
    0C78: B0 03    JNZ   0x0C7C
(0155) 			break;
    0C7A: 80 28    JMP   0x0CA3
(0156) 	}
    0C7C: 62 D0 00 MOV   REG[0xD0],0x0
    0C7F: 52 FA    MOV   A,[X-6]
    0C81: 53 56    MOV   [__r1],A
    0C83: 52 F9    MOV   A,[X-7]
    0C85: 53 57    MOV   [__r0],A
    0C87: 51 56    MOV   A,[__r1]
    0C89: 01 01    ADD   A,0x1
    0C8B: 54 FA    MOV   [X-6],A
    0C8D: 51 57    MOV   A,[__r0]
    0C8F: 09 00    ADC   A,0x0
    0C91: 54 F9    MOV   [X-7],A
    0C93: 51 57    MOV   A,[__r0]
    0C95: 60 D4    MOV   REG[0xD4],A
    0C97: 3E 56    MVI   A,[__r1]
    0C99: 7A 56    DEC   [__r1]
    0C9B: 53 57    MOV   [__r0],A
    0C9D: 54 01    MOV   [X+1],A
    0C9F: 39 00    CMP   A,0x0
    0CA1: BF A6    JNZ   0x0C48
(0157) 	return(stat);
    0CA3: 52 00    MOV   A,[X+0]
    0CA5: 62 D0 00 MOV   REG[0xD0],0x0
    0CA8: 38 FE    ADD   SP,0xFE
    0CAA: 20       POP   X
    0CAB: 7F       RET   
(0158) }
(0159) 
(0160) //----------------------------------------
(0161) // Print Const String
(0162) // ROM
(0163) //----------------------------------------
(0164) //
(0165) static UINT8 ACM1602_PrCString(ACM1602 *p, const char *sRomString)
(0166) {
acm1602.c:ACM1602_PrCString:
  c                    --> X+1
  stat                 --> X+0
  sRomString           --> X-7
  p                    --> X-5
    0CAC: 10       PUSH  X
    0CAD: 4F       MOV   X,SP
    0CAE: 38 02    ADD   SP,0x2
(0167) 	UINT8 stat,c;
(0168) 	stat = !MI2C_WRITE_ERR;
    0CB0: 56 00 00 MOV   [X+0],0x0
    0CB3: 80 35    JMP   0x0CE9
(0169) 	while ((c = *sRomString++) != '\0') {		// Repeat unitl EOS
(0170) 		stat = (p->WriteData)(p,c);		// EOS
    0CB5: 10       PUSH  X
    0CB6: 52 01    MOV   A,[X+1]
    0CB8: 08       PUSH  A
    0CB9: 52 FB    MOV   A,[X-5]
    0CBB: 08       PUSH  A
    0CBC: 52 FC    MOV   A,[X-4]
    0CBE: 08       PUSH  A
    0CBF: 62 D0 00 MOV   REG[0xD0],0x0
    0CC2: 52 FC    MOV   A,[X-4]
    0CC4: 01 15    ADD   A,0x15
    0CC6: 53 56    MOV   [__r1],A
    0CC8: 52 FB    MOV   A,[X-5]
    0CCA: 09 00    ADC   A,0x0
    0CCC: 60 D4    MOV   REG[0xD4],A
    0CCE: 3E 56    MVI   A,[__r1]
    0CD0: 53 57    MOV   [__r0],A
    0CD2: 3E 56    MVI   A,[__r1]
    0CD4: 5C       MOV   X,A
    0CD5: 51 57    MOV   A,[__r0]
    0CD7: 7C 19 B7 LCALL __plcall
    0CDA: 38 FD    ADD   SP,0xFD
    0CDC: 62 D0 00 MOV   REG[0xD0],0x0
    0CDF: 20       POP   X
    0CE0: 54 00    MOV   [X+0],A
(0171) 		if (stat == MI2C_WRITE_ERR)
    0CE2: 3D 00 FF CMP   [X+0],0xFF
    0CE5: B0 03    JNZ   0x0CE9
(0172) 			break;
    0CE7: 80 27    JMP   0x0D0F
(0173) 	}
    0CE9: 62 D0 00 MOV   REG[0xD0],0x0
    0CEC: 52 FA    MOV   A,[X-6]
    0CEE: 53 56    MOV   [__r1],A
    0CF0: 52 F9    MOV   A,[X-7]
    0CF2: 53 57    MOV   [__r0],A
    0CF4: 51 56    MOV   A,[__r1]
    0CF6: 01 01    ADD   A,0x1
    0CF8: 54 FA    MOV   [X-6],A
    0CFA: 51 57    MOV   A,[__r0]
    0CFC: 09 00    ADC   A,0x0
    0CFE: 54 F9    MOV   [X-7],A
    0D00: 51 57    MOV   A,[__r0]
    0D02: 10       PUSH  X
    0D03: 58 56    MOV   X,[__r1]
    0D05: 28       ROMX  
    0D06: 20       POP   X
    0D07: 53 57    MOV   [__r0],A
    0D09: 54 01    MOV   [X+1],A
    0D0B: 39 00    CMP   A,0x0
    0D0D: BF A7    JNZ   0x0CB5
(0174) 	return(stat);
    0D0F: 52 00    MOV   A,[X+0]
    0D11: 62 D0 00 MOV   REG[0xD0],0x0
    0D14: 38 FE    ADD   SP,0xFE
    0D16: 20       POP   X
    0D17: 7F       RET   
(0175) }
(0176) 
(0177) //----------------------------------------
(0178) // Initialize ACM1602 Obuject
(0179) // ACM1602
(0180) //----------------------------------------
(0181) //
(0182) void ACM1602_Setup(
(0183) 		ACM1602 *p,
(0184) 		UINT8 bswadrs,
(0185) 		UINT8 bswch,
(0186) 		UINT8 devadrs,
(0187) 		UINT8 option)
(0188) {
_ACM1602_Setup:
  option               --> X-9
  devadrs              --> X-8
  bswch                --> X-7
  bswadrs              --> X-6
  p                    --> X-5
    0D18: 10       PUSH  X
    0D19: 4F       MOV   X,SP
(0189) 	p->Xpos = 0;				// X-Position
    0D1A: 62 D0 00 MOV   REG[0xD0],0x0
    0D1D: 52 FC    MOV   A,[X-4]
    0D1F: 01 0C    ADD   A,0xC
    0D21: 53 56    MOV   [__r1],A
    0D23: 52 FB    MOV   A,[X-5]
    0D25: 09 00    ADC   A,0x0
    0D27: 60 D5    MOV   REG[0xD5],A
    0D29: 50 00    MOV   A,0x0
    0D2B: 3F 56    MVI   [__r1],A
(0190) 	p->Ypos = 0;				// Y-Position
    0D2D: 52 FC    MOV   A,[X-4]
    0D2F: 01 0D    ADD   A,0xD
    0D31: 53 56    MOV   [__r1],A
    0D33: 52 FB    MOV   A,[X-5]
    0D35: 09 00    ADC   A,0x0
    0D37: 60 D5    MOV   REG[0xD5],A
    0D39: 50 00    MOV   A,0x0
    0D3B: 3F 56    MVI   [__r1],A
(0191) 	// Setup Library funtion Pointers
(0192) 	// 
(0193) 	p->Start = &ACM1602_Start;
    0D3D: 52 FC    MOV   A,[X-4]
    0D3F: 01 0F    ADD   A,0xF
    0D41: 53 56    MOV   [__r1],A
    0D43: 52 FB    MOV   A,[X-5]
    0D45: 09 00    ADC   A,0x0
    0D47: 60 D5    MOV   REG[0xD5],A
    0D49: 50 02    MOV   A,0x2
    0D4B: 3F 56    MVI   [__r1],A
    0D4D: 50 45    MOV   A,0x45
    0D4F: 3F 56    MVI   [__r1],A
(0194) 	p->Position = &ACM1602_Position;
    0D51: 52 FC    MOV   A,[X-4]
    0D53: 01 11    ADD   A,0x11
    0D55: 53 56    MOV   [__r1],A
    0D57: 52 FB    MOV   A,[X-5]
    0D59: 09 00    ADC   A,0x0
    0D5B: 60 D5    MOV   REG[0xD5],A
    0D5D: 50 02    MOV   A,0x2
    0D5F: 3F 56    MVI   [__r1],A
    0D61: 50 43    MOV   A,0x43
    0D63: 3F 56    MVI   [__r1],A
(0195) 	p->Clear = &ACM1602_Clear;
    0D65: 52 FC    MOV   A,[X-4]
    0D67: 01 13    ADD   A,0x13
    0D69: 53 56    MOV   [__r1],A
    0D6B: 52 FB    MOV   A,[X-5]
    0D6D: 09 00    ADC   A,0x0
    0D6F: 60 D5    MOV   REG[0xD5],A
    0D71: 50 02    MOV   A,0x2
    0D73: 3F 56    MVI   [__r1],A
    0D75: 50 41    MOV   A,0x41
    0D77: 3F 56    MVI   [__r1],A
(0196) 	p->WriteData = &ACM1602_WriteData;
    0D79: 52 FC    MOV   A,[X-4]
    0D7B: 01 15    ADD   A,0x15
    0D7D: 53 56    MOV   [__r1],A
    0D7F: 52 FB    MOV   A,[X-5]
    0D81: 09 00    ADC   A,0x0
    0D83: 60 D5    MOV   REG[0xD5],A
    0D85: 50 02    MOV   A,0x2
    0D87: 3F 56    MVI   [__r1],A
    0D89: 50 3F    MOV   A,0x3F
    0D8B: 3F 56    MVI   [__r1],A
(0197) 	p->PrHexByte = &ACM1602_PrHexByte;
    0D8D: 52 FC    MOV   A,[X-4]
    0D8F: 01 17    ADD   A,0x17
    0D91: 53 56    MOV   [__r1],A
    0D93: 52 FB    MOV   A,[X-5]
    0D95: 09 00    ADC   A,0x0
    0D97: 60 D5    MOV   REG[0xD5],A
    0D99: 50 02    MOV   A,0x2
    0D9B: 3F 56    MVI   [__r1],A
    0D9D: 50 3D    MOV   A,0x3D
    0D9F: 3F 56    MVI   [__r1],A
(0198) 	p->PrHexInt = &ACM1602_PrHexInt;
    0DA1: 52 FC    MOV   A,[X-4]
    0DA3: 01 19    ADD   A,0x19
    0DA5: 53 56    MOV   [__r1],A
    0DA7: 52 FB    MOV   A,[X-5]
    0DA9: 09 00    ADC   A,0x0
    0DAB: 60 D5    MOV   REG[0xD5],A
    0DAD: 50 02    MOV   A,0x2
    0DAF: 3F 56    MVI   [__r1],A
    0DB1: 50 3B    MOV   A,0x3B
    0DB3: 3F 56    MVI   [__r1],A
(0199) 	p->PrString = &ACM1602_PrString;
    0DB5: 52 FC    MOV   A,[X-4]
    0DB7: 01 1B    ADD   A,0x1B
    0DB9: 53 56    MOV   [__r1],A
    0DBB: 52 FB    MOV   A,[X-5]
    0DBD: 09 00    ADC   A,0x0
    0DBF: 60 D5    MOV   REG[0xD5],A
    0DC1: 50 02    MOV   A,0x2
    0DC3: 3F 56    MVI   [__r1],A
    0DC5: 50 39    MOV   A,0x39
    0DC7: 3F 56    MVI   [__r1],A
(0200) 	p->PrCString = &ACM1602_PrCString;
    0DC9: 52 FC    MOV   A,[X-4]
    0DCB: 01 1D    ADD   A,0x1D
    0DCD: 53 56    MOV   [__r1],A
    0DCF: 52 FB    MOV   A,[X-5]
    0DD1: 09 00    ADC   A,0x0
    0DD3: 60 D5    MOV   REG[0xD5],A
    0DD5: 50 02    MOV   A,0x2
    0DD7: 3F 56    MVI   [__r1],A
    0DD9: 50 37    MOV   A,0x37
    0DDB: 3F 56    MVI   [__r1],A
(0201) 
(0202) 	// Initialize Common Library
(0203) 	// 
(0204) 	MI2C_Setup(&(p->madrs), bswadrs, bswch, devadrs, option);
    0DDD: 52 F7    MOV   A,[X-9]
    0DDF: 08       PUSH  A
    0DE0: 52 F8    MOV   A,[X-8]
    0DE2: 08       PUSH  A
    0DE3: 52 F9    MOV   A,[X-7]
    0DE5: 08       PUSH  A
    0DE6: 52 FA    MOV   A,[X-6]
    0DE8: 08       PUSH  A
    0DE9: 52 FB    MOV   A,[X-5]
    0DEB: 08       PUSH  A
    0DEC: 52 FC    MOV   A,[X-4]
    0DEE: 08       PUSH  A
    0DEF: 7C 17 91 LCALL _MI2C_Setup
    0DF2: 38 FA    ADD   SP,0xFA
    0DF4: 20       POP   X
    0DF5: 7F       RET   
FILE: Z:\tmp\Modulio\Proj\V9\PSoC1\lib_modulio\adxl345.c
(0001) //---------------------------------------
(0002) //- ADXL345 3-Axis AccSensor		-
(0003) //- RxZT			-
(0004) //---------------------------------------
(0005) //
(0006) #define	EXTERN
(0007) #include "Modulio.h"
(0008) #undef EXTERN
(0009) #include "ADXL345.h"
(0010) 
(0011) //---------------------------------------
(0012) //--- Init Device
(0013) //--- foCX
(0014) //---------------------------------------
(0015) static UINT8 ADXL345_Start(ADXL345 *p)
(0016) {
adxl345.c:ADXL345_Start:
  stat                 --> X+0
  p                    --> X-5
    0DF6: 10       PUSH  X
    0DF7: 4F       MOV   X,SP
    0DF8: 38 01    ADD   SP,0x1
(0017) 	UINT8 stat;
(0018) 	stat = (p->madrs).WriteByte(&(p->madrs), 0x2d, 0x08); // Start Measurement
    0DFA: 10       PUSH  X
    0DFB: 50 08    MOV   A,0x8
    0DFD: 08       PUSH  A
    0DFE: 50 00    MOV   A,0x0
    0E00: 08       PUSH  A
    0E01: 50 2D    MOV   A,0x2D
    0E03: 08       PUSH  A
    0E04: 52 FB    MOV   A,[X-5]
    0E06: 08       PUSH  A
    0E07: 52 FC    MOV   A,[X-4]
    0E09: 08       PUSH  A
    0E0A: 62 D0 00 MOV   REG[0xD0],0x0
    0E0D: 52 FC    MOV   A,[X-4]
    0E0F: 01 06    ADD   A,0x6
    0E11: 53 56    MOV   [__r1],A
    0E13: 52 FB    MOV   A,[X-5]
    0E15: 09 00    ADC   A,0x0
    0E17: 60 D4    MOV   REG[0xD4],A
    0E19: 3E 56    MVI   A,[__r1]
    0E1B: 53 57    MOV   [__r0],A
    0E1D: 3E 56    MVI   A,[__r1]
    0E1F: 5C       MOV   X,A
    0E20: 51 57    MOV   A,[__r0]
    0E22: 7C 19 B7 LCALL __plcall
    0E25: 38 FB    ADD   SP,0xFB
    0E27: 62 D0 00 MOV   REG[0xD0],0x0
    0E2A: 20       POP   X
    0E2B: 54 00    MOV   [X+0],A
(0019) 	return(stat);
    0E2D: 52 00    MOV   A,[X+0]
    0E2F: 38 FF    ADD   SP,0xFF
    0E31: 20       POP   X
    0E32: 7F       RET   
(0020) }
(0021) 
(0022) //---------------------------------------
(0023) //--- Read ID Reg. (0xE5j
(0024) //--- IDWX^
(0025) //---------------------------------------
(0026) //
(0027) static UINT8 ADXL345_GetID(ADXL345 *p)
(0028) {
adxl345.c:ADXL345_GetID:
  p                    --> X-5
    0E33: 10       PUSH  X
    0E34: 4F       MOV   X,SP
(0029) 	return((p->madrs).ReadByte(&(p->madrs), 0, &p->ID));
    0E35: 62 D0 00 MOV   REG[0xD0],0x0
    0E38: 52 FC    MOV   A,[X-4]
    0E3A: 01 0C    ADD   A,0xC
    0E3C: 53 56    MOV   [__r1],A
    0E3E: 52 FB    MOV   A,[X-5]
    0E40: 09 00    ADC   A,0x0
    0E42: 10       PUSH  X
    0E43: 08       PUSH  A
    0E44: 51 56    MOV   A,[__r1]
    0E46: 08       PUSH  A
    0E47: 50 00    MOV   A,0x0
    0E49: 08       PUSH  A
    0E4A: 08       PUSH  A
    0E4B: 52 FB    MOV   A,[X-5]
    0E4D: 08       PUSH  A
    0E4E: 52 FC    MOV   A,[X-4]
    0E50: 08       PUSH  A
    0E51: 52 FC    MOV   A,[X-4]
    0E53: 01 0A    ADD   A,0xA
    0E55: 53 56    MOV   [__r1],A
    0E57: 52 FB    MOV   A,[X-5]
    0E59: 09 00    ADC   A,0x0
    0E5B: 60 D4    MOV   REG[0xD4],A
    0E5D: 3E 56    MVI   A,[__r1]
    0E5F: 53 57    MOV   [__r0],A
    0E61: 3E 56    MVI   A,[__r1]
    0E63: 5C       MOV   X,A
    0E64: 51 57    MOV   A,[__r0]
    0E66: 7C 19 B7 LCALL __plcall
    0E69: 38 FA    ADD   SP,0xFA
    0E6B: 62 D0 00 MOV   REG[0xD0],0x0
    0E6E: 20       POP   X
    0E6F: 20       POP   X
    0E70: 7F       RET   
(0030) }
(0031) 
(0032) //---------------------------------------
(0033) //--- Read Accelero Data Reg.
(0034) //--- xf[^WX^
(0035) //---------------------------------------
(0036) static void ADXL345_GetVal(ADXL345 *p)
(0037) {
adxl345.c:ADXL345_GetVal:
  buf                  --> X+0
  p                    --> X-5
    0E71: 10       PUSH  X
    0E72: 4F       MOV   X,SP
    0E73: 38 02    ADD   SP,0x2
(0038) 	UINT8 buf[2];
(0039) 	(p->madrs).ReadBytes(&(p->madrs), 0x32, buf,2);
    0E75: 10       PUSH  X
    0E76: 50 02    MOV   A,0x2
    0E78: 08       PUSH  A
    0E79: 62 D0 00 MOV   REG[0xD0],0x0
    0E7C: 50 07    MOV   A,0x7
    0E7E: 08       PUSH  A
    0E7F: 10       PUSH  X
    0E80: 50 00    MOV   A,0x0
    0E82: 08       PUSH  A
    0E83: 50 32    MOV   A,0x32
    0E85: 08       PUSH  A
    0E86: 52 FB    MOV   A,[X-5]
    0E88: 08       PUSH  A
    0E89: 52 FC    MOV   A,[X-4]
    0E8B: 08       PUSH  A
    0E8C: 52 FC    MOV   A,[X-4]
    0E8E: 01 08    ADD   A,0x8
    0E90: 53 56    MOV   [__r1],A
    0E92: 52 FB    MOV   A,[X-5]
    0E94: 09 00    ADC   A,0x0
    0E96: 60 D4    MOV   REG[0xD4],A
    0E98: 3E 56    MVI   A,[__r1]
    0E9A: 53 57    MOV   [__r0],A
    0E9C: 3E 56    MVI   A,[__r1]
    0E9E: 5C       MOV   X,A
    0E9F: 51 57    MOV   A,[__r0]
    0EA1: 7C 19 B7 LCALL __plcall
    0EA4: 38 F9    ADD   SP,0xF9
    0EA6: 62 D0 00 MOV   REG[0xD0],0x0
    0EA9: 20       POP   X
(0040) 	p->xdat = ((buf[1] & 0x3) << 8) | buf[0];
    0EAA: 52 01    MOV   A,[X+1]
    0EAC: 21 03    AND   A,0x3
    0EAE: 53 57    MOV   [__r0],A
    0EB0: 52 00    MOV   A,[X+0]
    0EB2: 53 56    MOV   [__r1],A
    0EB4: 52 FC    MOV   A,[X-4]
    0EB6: 01 0D    ADD   A,0xD
    0EB8: 53 54    MOV   [__r3],A
    0EBA: 52 FB    MOV   A,[X-5]
    0EBC: 09 00    ADC   A,0x0
    0EBE: 60 D5    MOV   REG[0xD5],A
    0EC0: 51 57    MOV   A,[__r0]
    0EC2: 3F 54    MVI   [__r3],A
    0EC4: 51 56    MOV   A,[__r1]
    0EC6: 3F 54    MVI   [__r3],A
(0041) 	(p->madrs).ReadBytes(&(p->madrs), 0x34,buf,2);
    0EC8: 10       PUSH  X
    0EC9: 50 02    MOV   A,0x2
    0ECB: 08       PUSH  A
    0ECC: 50 07    MOV   A,0x7
    0ECE: 08       PUSH  A
    0ECF: 10       PUSH  X
    0ED0: 50 00    MOV   A,0x0
    0ED2: 08       PUSH  A
    0ED3: 50 34    MOV   A,0x34
    0ED5: 08       PUSH  A
    0ED6: 52 FB    MOV   A,[X-5]
    0ED8: 08       PUSH  A
    0ED9: 52 FC    MOV   A,[X-4]
    0EDB: 08       PUSH  A
    0EDC: 52 FC    MOV   A,[X-4]
    0EDE: 01 08    ADD   A,0x8
    0EE0: 53 56    MOV   [__r1],A
    0EE2: 52 FB    MOV   A,[X-5]
    0EE4: 09 00    ADC   A,0x0
    0EE6: 60 D4    MOV   REG[0xD4],A
    0EE8: 3E 56    MVI   A,[__r1]
    0EEA: 53 57    MOV   [__r0],A
    0EEC: 3E 56    MVI   A,[__r1]
    0EEE: 5C       MOV   X,A
    0EEF: 51 57    MOV   A,[__r0]
    0EF1: 7C 19 B7 LCALL __plcall
    0EF4: 38 F9    ADD   SP,0xF9
    0EF6: 62 D0 00 MOV   REG[0xD0],0x0
    0EF9: 20       POP   X
(0042) 	p->ydat = ((buf[1] & 0x3) << 8) | buf[0];
    0EFA: 52 01    MOV   A,[X+1]
    0EFC: 21 03    AND   A,0x3
    0EFE: 53 57    MOV   [__r0],A
    0F00: 52 00    MOV   A,[X+0]
    0F02: 53 56    MOV   [__r1],A
    0F04: 52 FC    MOV   A,[X-4]
    0F06: 01 0F    ADD   A,0xF
    0F08: 53 54    MOV   [__r3],A
    0F0A: 52 FB    MOV   A,[X-5]
    0F0C: 09 00    ADC   A,0x0
    0F0E: 60 D5    MOV   REG[0xD5],A
    0F10: 51 57    MOV   A,[__r0]
    0F12: 3F 54    MVI   [__r3],A
    0F14: 51 56    MOV   A,[__r1]
    0F16: 3F 54    MVI   [__r3],A
(0043) 	(p->madrs).ReadBytes(&(p->madrs), 0x36,buf,2);
    0F18: 10       PUSH  X
    0F19: 50 02    MOV   A,0x2
    0F1B: 08       PUSH  A
    0F1C: 50 07    MOV   A,0x7
    0F1E: 08       PUSH  A
    0F1F: 10       PUSH  X
    0F20: 50 00    MOV   A,0x0
    0F22: 08       PUSH  A
    0F23: 50 36    MOV   A,0x36
    0F25: 08       PUSH  A
    0F26: 52 FB    MOV   A,[X-5]
    0F28: 08       PUSH  A
    0F29: 52 FC    MOV   A,[X-4]
    0F2B: 08       PUSH  A
    0F2C: 52 FC    MOV   A,[X-4]
    0F2E: 01 08    ADD   A,0x8
    0F30: 53 56    MOV   [__r1],A
    0F32: 52 FB    MOV   A,[X-5]
    0F34: 09 00    ADC   A,0x0
    0F36: 60 D4    MOV   REG[0xD4],A
    0F38: 3E 56    MVI   A,[__r1]
    0F3A: 53 57    MOV   [__r0],A
    0F3C: 3E 56    MVI   A,[__r1]
    0F3E: 5C       MOV   X,A
    0F3F: 51 57    MOV   A,[__r0]
    0F41: 7C 19 B7 LCALL __plcall
    0F44: 38 F9    ADD   SP,0xF9
    0F46: 62 D0 00 MOV   REG[0xD0],0x0
    0F49: 20       POP   X
(0044) 	p->zdat = ((buf[1] & 0x3) << 8) | buf[0];
    0F4A: 52 01    MOV   A,[X+1]
    0F4C: 21 03    AND   A,0x3
    0F4E: 53 57    MOV   [__r0],A
    0F50: 52 00    MOV   A,[X+0]
    0F52: 53 56    MOV   [__r1],A
    0F54: 52 FC    MOV   A,[X-4]
    0F56: 01 11    ADD   A,0x11
    0F58: 53 54    MOV   [__r3],A
    0F5A: 52 FB    MOV   A,[X-5]
    0F5C: 09 00    ADC   A,0x0
    0F5E: 60 D5    MOV   REG[0xD5],A
    0F60: 51 57    MOV   A,[__r0]
    0F62: 3F 54    MVI   [__r3],A
    0F64: 51 56    MOV   A,[__r1]
    0F66: 3F 54    MVI   [__r3],A
    0F68: 38 FE    ADD   SP,0xFE
    0F6A: 20       POP   X
    0F6B: 7F       RET   
(0045) }
(0046) 
(0047) //----------------------------------------
(0048) // Initialize ADXL345 Obuject
(0049) // ADXL345IuWFNg
(0050) //----------------------------------------
(0051) //
(0052) void ADXL345_Setup(
(0053) 		ADXL345 *p,
(0054) 		UINT8 bswadrs,
(0055) 		UINT8 bswch,
(0056) 		UINT8 devadrs,
(0057) 		UINT8 option)
(0058) {
_ADXL345_Setup:
  option               --> X-9
  devadrs              --> X-8
  bswch                --> X-7
  bswadrs              --> X-6
  p                    --> X-5
    0F6C: 10       PUSH  X
    0F6D: 4F       MOV   X,SP
(0059) 
(0060) 	p->xdat = 0;
    0F6E: 62 D0 00 MOV   REG[0xD0],0x0
    0F71: 52 FC    MOV   A,[X-4]
    0F73: 01 0D    ADD   A,0xD
    0F75: 53 56    MOV   [__r1],A
    0F77: 52 FB    MOV   A,[X-5]
    0F79: 09 00    ADC   A,0x0
    0F7B: 60 D5    MOV   REG[0xD5],A
    0F7D: 50 00    MOV   A,0x0
    0F7F: 3F 56    MVI   [__r1],A
    0F81: 3F 56    MVI   [__r1],A
(0061) 	p->ydat = 0;
    0F83: 52 FC    MOV   A,[X-4]
    0F85: 01 0F    ADD   A,0xF
    0F87: 53 56    MOV   [__r1],A
    0F89: 52 FB    MOV   A,[X-5]
    0F8B: 09 00    ADC   A,0x0
    0F8D: 60 D5    MOV   REG[0xD5],A
    0F8F: 50 00    MOV   A,0x0
    0F91: 3F 56    MVI   [__r1],A
    0F93: 3F 56    MVI   [__r1],A
(0062) 	p->zdat = 0;
    0F95: 52 FC    MOV   A,[X-4]
    0F97: 01 11    ADD   A,0x11
    0F99: 53 56    MOV   [__r1],A
    0F9B: 52 FB    MOV   A,[X-5]
    0F9D: 09 00    ADC   A,0x0
    0F9F: 60 D5    MOV   REG[0xD5],A
    0FA1: 50 00    MOV   A,0x0
    0FA3: 3F 56    MVI   [__r1],A
    0FA5: 3F 56    MVI   [__r1],A
(0063) 	p->Start  = &ADXL345_Start;
    0FA7: 52 FC    MOV   A,[X-4]
    0FA9: 01 13    ADD   A,0x13
    0FAB: 53 56    MOV   [__r1],A
    0FAD: 52 FB    MOV   A,[X-5]
    0FAF: 09 00    ADC   A,0x0
    0FB1: 60 D5    MOV   REG[0xD5],A
    0FB3: 50 02    MOV   A,0x2
    0FB5: 3F 56    MVI   [__r1],A
    0FB7: 50 4B    MOV   A,0x4B
    0FB9: 3F 56    MVI   [__r1],A
(0064) 	p->GetID  = &ADXL345_GetID;
    0FBB: 52 FC    MOV   A,[X-4]
    0FBD: 01 15    ADD   A,0x15
    0FBF: 53 56    MOV   [__r1],A
    0FC1: 52 FB    MOV   A,[X-5]
    0FC3: 09 00    ADC   A,0x0
    0FC5: 60 D5    MOV   REG[0xD5],A
    0FC7: 50 02    MOV   A,0x2
    0FC9: 3F 56    MVI   [__r1],A
    0FCB: 50 49    MOV   A,0x49
    0FCD: 3F 56    MVI   [__r1],A
(0065) 	p->GetVal = &ADXL345_GetVal;
    0FCF: 52 FC    MOV   A,[X-4]
    0FD1: 01 17    ADD   A,0x17
    0FD3: 53 56    MOV   [__r1],A
    0FD5: 52 FB    MOV   A,[X-5]
    0FD7: 09 00    ADC   A,0x0
    0FD9: 60 D5    MOV   REG[0xD5],A
    0FDB: 50 02    MOV   A,0x2
    0FDD: 3F 56    MVI   [__r1],A
    0FDF: 50 47    MOV   A,0x47
    0FE1: 3F 56    MVI   [__r1],A
(0066) 
(0067) 	MI2C_Setup(&(p->madrs), bswadrs, bswch, devadrs, option);
    0FE3: 52 F7    MOV   A,[X-9]
    0FE5: 08       PUSH  A
    0FE6: 52 F8    MOV   A,[X-8]
    0FE8: 08       PUSH  A
    0FE9: 52 F9    MOV   A,[X-7]
    0FEB: 08       PUSH  A
    0FEC: 52 FA    MOV   A,[X-6]
    0FEE: 08       PUSH  A
    0FEF: 52 FB    MOV   A,[X-5]
    0FF1: 08       PUSH  A
    0FF2: 52 FC    MOV   A,[X-4]
    0FF4: 08       PUSH  A
    0FF5: 7C 17 91 LCALL _MI2C_Setup
    0FF8: 38 FA    ADD   SP,0xFA
    0FFA: 20       POP   X
    0FFB: 7F       RET   
FILE: Z:\tmp\Modulio\Proj\V9\PSoC1\MODU~D1D\MODU~D1D\main.c
(0001) //----------------------------------------
(0002) //--- LPS25H Test Program
(0003) //----------------------------------------
(0004) //
(0005) #include <stdio.h>
(0006) #define	EXTERN
(0007) #include "Modulio.h"
(0008) #include "ACM1602.h"
(0009) #include "ADXL345.h"
(0010) #undef EXTERN
(0011) 
(0012) ACM1602	lcd;
(0013) ADXL345	gsense;
(0014) char	s[16];
(0015) 
(0016) void pr2dec(char *s, UINT8 dat)
(0017) {
_pr2dec:
  dat                  --> X-6
  s                    --> X-5
    0FFC: 10       PUSH  X
    0FFD: 4F       MOV   X,SP
(0018) 	*s++ = (dat/10) + '0';
    0FFE: 62 D0 00 MOV   REG[0xD0],0x0
    1001: 52 FC    MOV   A,[X-4]
    1003: 53 56    MOV   [__r1],A
    1005: 52 FB    MOV   A,[X-5]
    1007: 53 57    MOV   [__r0],A
    1009: 51 56    MOV   A,[__r1]
    100B: 01 01    ADD   A,0x1
    100D: 54 FC    MOV   [X-4],A
    100F: 51 57    MOV   A,[__r0]
    1011: 09 00    ADC   A,0x0
    1013: 54 FB    MOV   [X-5],A
    1015: 50 0A    MOV   A,0xA
    1017: 08       PUSH  A
    1018: 52 FA    MOV   A,[X-6]
    101A: 08       PUSH  A
    101B: 7C 19 4D LCALL 0x194D
    101E: 18       POP   A
    101F: 53 55    MOV   [__r2],A
    1021: 38 FF    ADD   SP,0xFF
    1023: 06 55 30 ADD   [__r2],0x30
    1026: 51 57    MOV   A,[__r0]
    1028: 60 D5    MOV   REG[0xD5],A
    102A: 51 55    MOV   A,[__r2]
    102C: 3F 56    MVI   [__r1],A
(0019) 	*s++ = (dat%10) + '0';
    102E: 52 FC    MOV   A,[X-4]
    1030: 53 56    MOV   [__r1],A
    1032: 52 FB    MOV   A,[X-5]
    1034: 53 57    MOV   [__r0],A
    1036: 51 56    MOV   A,[__r1]
    1038: 01 01    ADD   A,0x1
    103A: 54 FC    MOV   [X-4],A
    103C: 51 57    MOV   A,[__r0]
    103E: 09 00    ADC   A,0x0
    1040: 54 FB    MOV   [X-5],A
    1042: 50 0A    MOV   A,0xA
    1044: 08       PUSH  A
    1045: 52 FA    MOV   A,[X-6]
    1047: 08       PUSH  A
    1048: 7C 19 4D LCALL 0x194D
    104B: 38 FF    ADD   SP,0xFF
    104D: 18       POP   A
    104E: 53 55    MOV   [__r2],A
    1050: 06 55 30 ADD   [__r2],0x30
    1053: 51 57    MOV   A,[__r0]
    1055: 60 D5    MOV   REG[0xD5],A
    1057: 51 55    MOV   A,[__r2]
    1059: 3F 56    MVI   [__r1],A
(0020) 	*s = 0x00;
    105B: 52 FC    MOV   A,[X-4]
    105D: 53 56    MOV   [__r1],A
    105F: 52 FB    MOV   A,[X-5]
    1061: 60 D5    MOV   REG[0xD5],A
    1063: 50 00    MOV   A,0x0
    1065: 3F 56    MVI   [__r1],A
    1067: 20       POP   X
    1068: 7F       RET   
(0021) }
(0022) 
(0023) void pr4dec(char *s, UINT16 dat)
(0024) {
_pr4dec:
  dat                  --> X-7
  s                    --> X-5
    1069: 10       PUSH  X
    106A: 4F       MOV   X,SP
(0025) 	pr2dec(s, dat/100);
    106B: 62 D0 00 MOV   REG[0xD0],0x0
    106E: 50 00    MOV   A,0x0
    1070: 08       PUSH  A
    1071: 50 64    MOV   A,0x64
    1073: 08       PUSH  A
    1074: 52 F9    MOV   A,[X-7]
    1076: 08       PUSH  A
    1077: 52 FA    MOV   A,[X-6]
    1079: 08       PUSH  A
    107A: 7C 19 42 LCALL 0x1942
    107D: 18       POP   A
    107E: 53 56    MOV   [__r1],A
    1080: 18       POP   A
    1081: 38 FE    ADD   SP,0xFE
    1083: 51 56    MOV   A,[__r1]
    1085: 08       PUSH  A
    1086: 52 FB    MOV   A,[X-5]
    1088: 08       PUSH  A
    1089: 52 FC    MOV   A,[X-4]
    108B: 08       PUSH  A
    108C: 9F 6E    CALL  _pr2dec
    108E: 38 FD    ADD   SP,0xFD
(0026) 	pr2dec(s+2, dat%100);
    1090: 62 D0 00 MOV   REG[0xD0],0x0
    1093: 50 00    MOV   A,0x0
    1095: 08       PUSH  A
    1096: 50 64    MOV   A,0x64
    1098: 08       PUSH  A
    1099: 52 F9    MOV   A,[X-7]
    109B: 08       PUSH  A
    109C: 52 FA    MOV   A,[X-6]
    109E: 08       PUSH  A
    109F: 7C 19 42 LCALL 0x1942
    10A2: 38 FE    ADD   SP,0xFE
    10A4: 18       POP   A
    10A5: 53 56    MOV   [__r1],A
    10A7: 18       POP   A
    10A8: 51 56    MOV   A,[__r1]
    10AA: 08       PUSH  A
    10AB: 52 FC    MOV   A,[X-4]
    10AD: 01 02    ADD   A,0x2
    10AF: 53 56    MOV   [__r1],A
    10B1: 52 FB    MOV   A,[X-5]
    10B3: 09 00    ADC   A,0x0
    10B5: 08       PUSH  A
    10B6: 51 56    MOV   A,[__r1]
    10B8: 08       PUSH  A
    10B9: 9F 41    CALL  _pr2dec
    10BB: 38 FD    ADD   SP,0xFD
(0027) 	*(s+4) = 0x00;
    10BD: 62 D0 00 MOV   REG[0xD0],0x0
    10C0: 52 FC    MOV   A,[X-4]
    10C2: 01 04    ADD   A,0x4
    10C4: 53 56    MOV   [__r1],A
    10C6: 52 FB    MOV   A,[X-5]
    10C8: 09 00    ADC   A,0x0
    10CA: 60 D5    MOV   REG[0xD5],A
    10CC: 50 00    MOV   A,0x0
    10CE: 3F 56    MVI   [__r1],A
    10D0: 20       POP   X
    10D1: 7F       RET   
(0028) }
(0029) 
(0030) int main(void)
(0031) {
_main:
  fz                   --> X+8
  fy                   --> X+7
  fx                   --> X+6
  z                    --> X+4
  y                    --> X+2
  x                    --> X+0
    10D2: 10       PUSH  X
    10D3: 4F       MOV   X,SP
    10D4: 38 09    ADD   SP,0x9
(0032) 	UINT16 x,y,z;
(0033) 	UINT8 fx, fy, fz;
(0034) 	MI2C_Start();
    10D6: 7C 18 24 LCALL _MI2C_Start
(0035) 	ACM1602_Setup(&lcd, BSW_ADRS_DEFAULT, 0, ACM1602_ADRS0, 0);
    10D9: 50 00    MOV   A,0x0
    10DB: 08       PUSH  A
    10DC: 50 50    MOV   A,0x50
    10DE: 08       PUSH  A
    10DF: 50 00    MOV   A,0x0
    10E1: 08       PUSH  A
    10E2: 50 74    MOV   A,0x74
    10E4: 08       PUSH  A
    10E5: 50 00    MOV   A,0x0
    10E7: 08       PUSH  A
    10E8: 50 09    MOV   A,0x9
    10EA: 08       PUSH  A
    10EB: 7C 0D 18 LCALL _ACM1602_Setup
(0036) 	ADXL345_Setup(&gsense, BSW_ADRS_DEFAULT, 1, ADXL345_ADRS0, 0);
    10EE: 50 00    MOV   A,0x0
    10F0: 08       PUSH  A
    10F1: 50 1D    MOV   A,0x1D
    10F3: 08       PUSH  A
    10F4: 50 01    MOV   A,0x1
    10F6: 08       PUSH  A
    10F7: 50 74    MOV   A,0x74
    10F9: 08       PUSH  A
    10FA: 50 00    MOV   A,0x0
    10FC: 08       PUSH  A
    10FD: 50 28    MOV   A,0x28
    10FF: 08       PUSH  A
    1100: 7C 0F 6C LCALL _ADXL345_Setup
    1103: 38 F4    ADD   SP,0xF4
(0037) 	lcd.Start(&lcd);
    1105: 10       PUSH  X
    1106: 50 00    MOV   A,0x0
    1108: 08       PUSH  A
    1109: 50 09    MOV   A,0x9
    110B: 08       PUSH  A
    110C: 62 D0 00 MOV   REG[0xD0],0x0
    110F: 51 19    MOV   A,[lcd+16]
    1111: 08       PUSH  A
    1112: 51 18    MOV   A,[lcd+15]
    1114: 62 D0 00 MOV   REG[0xD0],0x0
    1117: 53 57    MOV   [__r0],A
    1119: 18       POP   A
    111A: 5C       MOV   X,A
    111B: 51 57    MOV   A,[__r0]
    111D: 7C 19 B7 LCALL __plcall
    1120: 38 FE    ADD   SP,0xFE
(0038) 	lcd.Position(&lcd, 0, 0);
    1122: 50 00    MOV   A,0x0
    1124: 08       PUSH  A
    1125: 08       PUSH  A
    1126: 50 00    MOV   A,0x0
    1128: 08       PUSH  A
    1129: 50 09    MOV   A,0x9
    112B: 08       PUSH  A
    112C: 62 D0 00 MOV   REG[0xD0],0x0
    112F: 51 1B    MOV   A,[lcd+18]
    1131: 08       PUSH  A
    1132: 51 1A    MOV   A,[lcd+17]
    1134: 62 D0 00 MOV   REG[0xD0],0x0
    1137: 53 57    MOV   [__r0],A
    1139: 18       POP   A
    113A: 5C       MOV   X,A
    113B: 51 57    MOV   A,[__r0]
    113D: 7C 19 B7 LCALL __plcall
    1140: 38 FC    ADD   SP,0xFC
(0039) 	lcd.PrCString(&lcd, "X:");
    1142: 50 01    MOV   A,0x1
    1144: 08       PUSH  A
    1145: 50 BE    MOV   A,0xBE
    1147: 08       PUSH  A
    1148: 50 00    MOV   A,0x0
    114A: 08       PUSH  A
    114B: 50 09    MOV   A,0x9
    114D: 08       PUSH  A
    114E: 62 D0 00 MOV   REG[0xD0],0x0
    1151: 51 27    MOV   A,[lcd+30]
    1153: 08       PUSH  A
    1154: 51 26    MOV   A,[lcd+29]
    1156: 62 D0 00 MOV   REG[0xD0],0x0
    1159: 53 57    MOV   [__r0],A
    115B: 18       POP   A
    115C: 5C       MOV   X,A
    115D: 51 57    MOV   A,[__r0]
    115F: 7C 19 B7 LCALL __plcall
    1162: 38 FC    ADD   SP,0xFC
(0040) 	lcd.Position(&lcd, 0, 8);
    1164: 50 08    MOV   A,0x8
    1166: 08       PUSH  A
    1167: 50 00    MOV   A,0x0
    1169: 08       PUSH  A
    116A: 50 00    MOV   A,0x0
    116C: 08       PUSH  A
    116D: 50 09    MOV   A,0x9
    116F: 08       PUSH  A
    1170: 62 D0 00 MOV   REG[0xD0],0x0
    1173: 51 1B    MOV   A,[lcd+18]
    1175: 08       PUSH  A
    1176: 51 1A    MOV   A,[lcd+17]
    1178: 62 D0 00 MOV   REG[0xD0],0x0
    117B: 53 57    MOV   [__r0],A
    117D: 18       POP   A
    117E: 5C       MOV   X,A
    117F: 51 57    MOV   A,[__r0]
    1181: 7C 19 B7 LCALL __plcall
    1184: 38 FC    ADD   SP,0xFC
(0041) 	lcd.PrCString(&lcd, "Y:");
    1186: 50 01    MOV   A,0x1
    1188: 08       PUSH  A
    1189: 50 BB    MOV   A,0xBB
    118B: 08       PUSH  A
    118C: 50 00    MOV   A,0x0
    118E: 08       PUSH  A
    118F: 50 09    MOV   A,0x9
    1191: 08       PUSH  A
    1192: 62 D0 00 MOV   REG[0xD0],0x0
    1195: 51 27    MOV   A,[lcd+30]
    1197: 08       PUSH  A
    1198: 51 26    MOV   A,[lcd+29]
    119A: 62 D0 00 MOV   REG[0xD0],0x0
    119D: 53 57    MOV   [__r0],A
    119F: 18       POP   A
    11A0: 5C       MOV   X,A
    11A1: 51 57    MOV   A,[__r0]
    11A3: 7C 19 B7 LCALL __plcall
    11A6: 38 FC    ADD   SP,0xFC
(0042) 	lcd.Position(&lcd, 1, 0);
    11A8: 50 00    MOV   A,0x0
    11AA: 08       PUSH  A
    11AB: 50 01    MOV   A,0x1
    11AD: 08       PUSH  A
    11AE: 50 00    MOV   A,0x0
    11B0: 08       PUSH  A
    11B1: 50 09    MOV   A,0x9
    11B3: 08       PUSH  A
    11B4: 62 D0 00 MOV   REG[0xD0],0x0
    11B7: 51 1B    MOV   A,[lcd+18]
    11B9: 08       PUSH  A
    11BA: 51 1A    MOV   A,[lcd+17]
    11BC: 62 D0 00 MOV   REG[0xD0],0x0
    11BF: 53 57    MOV   [__r0],A
    11C1: 18       POP   A
    11C2: 5C       MOV   X,A
    11C3: 51 57    MOV   A,[__r0]
    11C5: 7C 19 B7 LCALL __plcall
    11C8: 38 FC    ADD   SP,0xFC
(0043) 	lcd.PrCString(&lcd, "Z:");
    11CA: 50 01    MOV   A,0x1
    11CC: 08       PUSH  A
    11CD: 50 B8    MOV   A,0xB8
    11CF: 08       PUSH  A
    11D0: 50 00    MOV   A,0x0
    11D2: 08       PUSH  A
    11D3: 50 09    MOV   A,0x9
    11D5: 08       PUSH  A
    11D6: 62 D0 00 MOV   REG[0xD0],0x0
    11D9: 51 27    MOV   A,[lcd+30]
    11DB: 08       PUSH  A
    11DC: 51 26    MOV   A,[lcd+29]
    11DE: 62 D0 00 MOV   REG[0xD0],0x0
    11E1: 53 57    MOV   [__r0],A
    11E3: 18       POP   A
    11E4: 5C       MOV   X,A
    11E5: 51 57    MOV   A,[__r0]
    11E7: 7C 19 B7 LCALL __plcall
    11EA: 38 FC    ADD   SP,0xFC
(0044) 	lcd.Position(&lcd, 1, 8);
    11EC: 50 08    MOV   A,0x8
    11EE: 08       PUSH  A
    11EF: 50 01    MOV   A,0x1
    11F1: 08       PUSH  A
    11F2: 50 00    MOV   A,0x0
    11F4: 08       PUSH  A
    11F5: 50 09    MOV   A,0x9
    11F7: 08       PUSH  A
    11F8: 62 D0 00 MOV   REG[0xD0],0x0
    11FB: 51 1B    MOV   A,[lcd+18]
    11FD: 08       PUSH  A
    11FE: 51 1A    MOV   A,[lcd+17]
    1200: 62 D0 00 MOV   REG[0xD0],0x0
    1203: 53 57    MOV   [__r0],A
    1205: 18       POP   A
    1206: 5C       MOV   X,A
    1207: 51 57    MOV   A,[__r0]
    1209: 7C 19 B7 LCALL __plcall
    120C: 38 FC    ADD   SP,0xFC
(0045) 	lcd.PrCString(&lcd, "ADXL345");
    120E: 50 01    MOV   A,0x1
    1210: 08       PUSH  A
    1211: 50 B0    MOV   A,0xB0
    1213: 08       PUSH  A
    1214: 50 00    MOV   A,0x0
    1216: 08       PUSH  A
    1217: 50 09    MOV   A,0x9
    1219: 08       PUSH  A
    121A: 62 D0 00 MOV   REG[0xD0],0x0
    121D: 51 27    MOV   A,[lcd+30]
    121F: 08       PUSH  A
    1220: 51 26    MOV   A,[lcd+29]
    1222: 62 D0 00 MOV   REG[0xD0],0x0
    1225: 53 57    MOV   [__r0],A
    1227: 18       POP   A
    1228: 5C       MOV   X,A
    1229: 51 57    MOV   A,[__r0]
    122B: 7C 19 B7 LCALL __plcall
    122E: 38 FC    ADD   SP,0xFC
(0046) 	gsense.Start(&gsense);
    1230: 50 00    MOV   A,0x0
    1232: 08       PUSH  A
    1233: 50 28    MOV   A,0x28
    1235: 08       PUSH  A
    1236: 62 D0 00 MOV   REG[0xD0],0x0
    1239: 51 3C    MOV   A,[gsense+20]
    123B: 08       PUSH  A
    123C: 51 3B    MOV   A,[gsense+19]
    123E: 62 D0 00 MOV   REG[0xD0],0x0
    1241: 53 57    MOV   [__r0],A
    1243: 18       POP   A
    1244: 5C       MOV   X,A
    1245: 51 57    MOV   A,[__r0]
    1247: 7C 19 B7 LCALL __plcall
    124A: 38 FE    ADD   SP,0xFE
    124C: 62 D0 00 MOV   REG[0xD0],0x0
    124F: 20       POP   X
    1250: 82 03    JMP   0x1454
(0047) 	while(1) {
(0048) 		gsense.GetVal(&gsense);
    1252: 10       PUSH  X
    1253: 50 00    MOV   A,0x0
    1255: 08       PUSH  A
    1256: 50 28    MOV   A,0x28
    1258: 08       PUSH  A
    1259: 62 D0 00 MOV   REG[0xD0],0x0
    125C: 51 40    MOV   A,[gsense+24]
    125E: 08       PUSH  A
    125F: 51 3F    MOV   A,[gsense+23]
    1261: 62 D0 00 MOV   REG[0xD0],0x0
    1264: 53 57    MOV   [__r0],A
    1266: 18       POP   A
    1267: 5C       MOV   X,A
    1268: 51 57    MOV   A,[__r0]
    126A: 7C 19 B7 LCALL __plcall
    126D: 38 FE    ADD   SP,0xFE
    126F: 20       POP   X
(0049) 		x = gsense.xdat;
    1270: 62 D0 00 MOV   REG[0xD0],0x0
    1273: 51 36    MOV   A,[gsense+14]
    1275: 54 01    MOV   [X+1],A
    1277: 51 35    MOV   A,[gsense+13]
    1279: 54 00    MOV   [X+0],A
(0050) 		if (x & 0x200) {
    127B: 62 D0 00 MOV   REG[0xD0],0x0
    127E: 52 01    MOV   A,[X+1]
    1280: 21 00    AND   A,0x0
    1282: 53 56    MOV   [__r1],A
    1284: 52 00    MOV   A,[X+0]
    1286: 21 02    AND   A,0x2
    1288: 39 00    CMP   A,0x0
    128A: B0 06    JNZ   0x1291
    128C: 3C 56 00 CMP   [__r1],0x0
    128F: A0 12    JZ    0x12A2
(0051) 			fx = '-';
    1291: 56 06 2D MOV   [X+6],0x2D
(0052) 			x = 0x400-x;
    1294: 50 00    MOV   A,0x0
    1296: 13 01    SUB   A,[X+1]
    1298: 54 01    MOV   [X+1],A
    129A: 50 04    MOV   A,0x4
    129C: 1B 00    SBB   A,[X+0]
    129E: 54 00    MOV   [X+0],A
(0053) 		} else	fx = '+';
    12A0: 80 04    JMP   0x12A5
    12A2: 56 06 2B MOV   [X+6],0x2B
(0054) 		y = gsense.ydat;
    12A5: 62 D0 00 MOV   REG[0xD0],0x0
    12A8: 51 38    MOV   A,[gsense+16]
    12AA: 54 03    MOV   [X+3],A
    12AC: 51 37    MOV   A,[gsense+15]
    12AE: 54 02    MOV   [X+2],A
(0055) 		if (y & 0x200) {
    12B0: 62 D0 00 MOV   REG[0xD0],0x0
    12B3: 52 03    MOV   A,[X+3]
    12B5: 21 00    AND   A,0x0
    12B7: 53 56    MOV   [__r1],A
    12B9: 52 02    MOV   A,[X+2]
    12BB: 21 02    AND   A,0x2
    12BD: 39 00    CMP   A,0x0
    12BF: B0 06    JNZ   0x12C6
    12C1: 3C 56 00 CMP   [__r1],0x0
    12C4: A0 12    JZ    0x12D7
(0056) 			fy = '-';
    12C6: 56 07 2D MOV   [X+7],0x2D
(0057) 			y = 0x400-y;
    12C9: 50 00    MOV   A,0x0
    12CB: 13 03    SUB   A,[X+3]
    12CD: 54 03    MOV   [X+3],A
    12CF: 50 04    MOV   A,0x4
    12D1: 1B 02    SBB   A,[X+2]
    12D3: 54 02    MOV   [X+2],A
(0058) 		} else	fy = '+';
    12D5: 80 04    JMP   0x12DA
    12D7: 56 07 2B MOV   [X+7],0x2B
(0059) 		z = gsense.zdat;
    12DA: 62 D0 00 MOV   REG[0xD0],0x0
    12DD: 51 3A    MOV   A,[gsense+18]
    12DF: 54 05    MOV   [X+5],A
    12E1: 51 39    MOV   A,[gsense+17]
    12E3: 54 04    MOV   [X+4],A
(0060) 		if (z & 0x200) {
    12E5: 62 D0 00 MOV   REG[0xD0],0x0
    12E8: 52 05    MOV   A,[X+5]
    12EA: 21 00    AND   A,0x0
    12EC: 53 56    MOV   [__r1],A
    12EE: 52 04    MOV   A,[X+4]
    12F0: 21 02    AND   A,0x2
    12F2: 39 00    CMP   A,0x0
    12F4: B0 06    JNZ   0x12FB
    12F6: 3C 56 00 CMP   [__r1],0x0
    12F9: A0 12    JZ    0x130C
(0061) 			fz = '-';
    12FB: 56 08 2D MOV   [X+8],0x2D
(0062) 			z = 0x400-z;
    12FE: 50 00    MOV   A,0x0
    1300: 13 05    SUB   A,[X+5]
    1302: 54 05    MOV   [X+5],A
    1304: 50 04    MOV   A,0x4
    1306: 1B 04    SBB   A,[X+4]
    1308: 54 04    MOV   [X+4],A
(0063) 		} else	fz = '+';
    130A: 80 04    JMP   0x130F
    130C: 56 08 2B MOV   [X+8],0x2B
(0064) 		lcd.Position(&lcd, 0, 2);
    130F: 10       PUSH  X
    1310: 50 02    MOV   A,0x2
    1312: 08       PUSH  A
    1313: 50 00    MOV   A,0x0
    1315: 08       PUSH  A
    1316: 50 00    MOV   A,0x0
    1318: 08       PUSH  A
    1319: 50 09    MOV   A,0x9
    131B: 08       PUSH  A
    131C: 62 D0 00 MOV   REG[0xD0],0x0
    131F: 51 1B    MOV   A,[lcd+18]
    1321: 08       PUSH  A
    1322: 51 1A    MOV   A,[lcd+17]
    1324: 62 D0 00 MOV   REG[0xD0],0x0
    1327: 53 57    MOV   [__r0],A
    1329: 18       POP   A
    132A: 5C       MOV   X,A
    132B: 51 57    MOV   A,[__r0]
    132D: 7C 19 B7 LCALL __plcall
    1330: 38 FC    ADD   SP,0xFC
    1332: 20       POP   X
(0065) 		lcd.WriteData(&lcd, fx);
    1333: 10       PUSH  X
    1334: 52 06    MOV   A,[X+6]
    1336: 08       PUSH  A
    1337: 50 00    MOV   A,0x0
    1339: 08       PUSH  A
    133A: 50 09    MOV   A,0x9
    133C: 08       PUSH  A
    133D: 62 D0 00 MOV   REG[0xD0],0x0
    1340: 51 1F    MOV   A,[lcd+22]
    1342: 08       PUSH  A
    1343: 51 1E    MOV   A,[lcd+21]
    1345: 62 D0 00 MOV   REG[0xD0],0x0
    1348: 53 57    MOV   [__r0],A
    134A: 18       POP   A
    134B: 5C       MOV   X,A
    134C: 51 57    MOV   A,[__r0]
    134E: 7C 19 B7 LCALL __plcall
    1351: 38 FD    ADD   SP,0xFD
    1353: 20       POP   X
(0066) 		lcd.PrHexInt(&lcd, x);
    1354: 10       PUSH  X
    1355: 52 00    MOV   A,[X+0]
    1357: 08       PUSH  A
    1358: 52 01    MOV   A,[X+1]
    135A: 08       PUSH  A
    135B: 50 00    MOV   A,0x0
    135D: 08       PUSH  A
    135E: 50 09    MOV   A,0x9
    1360: 08       PUSH  A
    1361: 62 D0 00 MOV   REG[0xD0],0x0
    1364: 51 23    MOV   A,[lcd+26]
    1366: 08       PUSH  A
    1367: 51 22    MOV   A,[lcd+25]
    1369: 62 D0 00 MOV   REG[0xD0],0x0
    136C: 53 57    MOV   [__r0],A
    136E: 18       POP   A
    136F: 5C       MOV   X,A
    1370: 51 57    MOV   A,[__r0]
    1372: 7C 19 B7 LCALL __plcall
    1375: 38 FC    ADD   SP,0xFC
(0067) 		lcd.Position(&lcd, 0, 10);
    1377: 50 0A    MOV   A,0xA
    1379: 08       PUSH  A
    137A: 50 00    MOV   A,0x0
    137C: 08       PUSH  A
    137D: 50 00    MOV   A,0x0
    137F: 08       PUSH  A
    1380: 50 09    MOV   A,0x9
    1382: 08       PUSH  A
    1383: 62 D0 00 MOV   REG[0xD0],0x0
    1386: 51 1B    MOV   A,[lcd+18]
    1388: 08       PUSH  A
    1389: 51 1A    MOV   A,[lcd+17]
    138B: 62 D0 00 MOV   REG[0xD0],0x0
    138E: 53 57    MOV   [__r0],A
    1390: 18       POP   A
    1391: 5C       MOV   X,A
    1392: 51 57    MOV   A,[__r0]
    1394: 7C 19 B7 LCALL __plcall
    1397: 38 FC    ADD   SP,0xFC
    1399: 20       POP   X
(0068) 		lcd.WriteData(&lcd, fy);
    139A: 10       PUSH  X
    139B: 52 07    MOV   A,[X+7]
    139D: 08       PUSH  A
    139E: 50 00    MOV   A,0x0
    13A0: 08       PUSH  A
    13A1: 50 09    MOV   A,0x9
    13A3: 08       PUSH  A
    13A4: 62 D0 00 MOV   REG[0xD0],0x0
    13A7: 51 1F    MOV   A,[lcd+22]
    13A9: 08       PUSH  A
    13AA: 51 1E    MOV   A,[lcd+21]
    13AC: 62 D0 00 MOV   REG[0xD0],0x0
    13AF: 53 57    MOV   [__r0],A
    13B1: 18       POP   A
    13B2: 5C       MOV   X,A
    13B3: 51 57    MOV   A,[__r0]
    13B5: 7C 19 B7 LCALL __plcall
    13B8: 38 FD    ADD   SP,0xFD
    13BA: 20       POP   X
(0069) 		lcd.PrHexInt(&lcd, y);
    13BB: 10       PUSH  X
    13BC: 52 02    MOV   A,[X+2]
    13BE: 08       PUSH  A
    13BF: 52 03    MOV   A,[X+3]
    13C1: 08       PUSH  A
    13C2: 50 00    MOV   A,0x0
    13C4: 08       PUSH  A
    13C5: 50 09    MOV   A,0x9
    13C7: 08       PUSH  A
    13C8: 62 D0 00 MOV   REG[0xD0],0x0
    13CB: 51 23    MOV   A,[lcd+26]
    13CD: 08       PUSH  A
    13CE: 51 22    MOV   A,[lcd+25]
    13D0: 62 D0 00 MOV   REG[0xD0],0x0
    13D3: 53 57    MOV   [__r0],A
    13D5: 18       POP   A
    13D6: 5C       MOV   X,A
    13D7: 51 57    MOV   A,[__r0]
    13D9: 7C 19 B7 LCALL __plcall
    13DC: 38 FC    ADD   SP,0xFC
(0070) 		lcd.Position(&lcd, 1, 2);
    13DE: 50 02    MOV   A,0x2
    13E0: 08       PUSH  A
    13E1: 50 01    MOV   A,0x1
    13E3: 08       PUSH  A
    13E4: 50 00    MOV   A,0x0
    13E6: 08       PUSH  A
    13E7: 50 09    MOV   A,0x9
    13E9: 08       PUSH  A
    13EA: 62 D0 00 MOV   REG[0xD0],0x0
    13ED: 51 1B    MOV   A,[lcd+18]
    13EF: 08       PUSH  A
    13F0: 51 1A    MOV   A,[lcd+17]
    13F2: 62 D0 00 MOV   REG[0xD0],0x0
    13F5: 53 57    MOV   [__r0],A
    13F7: 18       POP   A
    13F8: 5C       MOV   X,A
    13F9: 51 57    MOV   A,[__r0]
    13FB: 7C 19 B7 LCALL __plcall
    13FE: 38 FC    ADD   SP,0xFC
    1400: 20       POP   X
(0071) 		lcd.WriteData(&lcd, fz);
    1401: 10       PUSH  X
    1402: 52 08    MOV   A,[X+8]
    1404: 08       PUSH  A
    1405: 50 00    MOV   A,0x0
    1407: 08       PUSH  A
    1408: 50 09    MOV   A,0x9
    140A: 08       PUSH  A
    140B: 62 D0 00 MOV   REG[0xD0],0x0
    140E: 51 1F    MOV   A,[lcd+22]
    1410: 08       PUSH  A
    1411: 51 1E    MOV   A,[lcd+21]
    1413: 62 D0 00 MOV   REG[0xD0],0x0
    1416: 53 57    MOV   [__r0],A
    1418: 18       POP   A
    1419: 5C       MOV   X,A
    141A: 51 57    MOV   A,[__r0]
    141C: 7C 19 B7 LCALL __plcall
    141F: 38 FD    ADD   SP,0xFD
    1421: 20       POP   X
(0072) 		lcd.PrHexInt(&lcd, z);
    1422: 10       PUSH  X
    1423: 52 04    MOV   A,[X+4]
    1425: 08       PUSH  A
    1426: 52 05    MOV   A,[X+5]
    1428: 08       PUSH  A
    1429: 50 00    MOV   A,0x0
    142B: 08       PUSH  A
    142C: 50 09    MOV   A,0x9
    142E: 08       PUSH  A
    142F: 62 D0 00 MOV   REG[0xD0],0x0
    1432: 51 23    MOV   A,[lcd+26]
    1434: 08       PUSH  A
    1435: 51 22    MOV   A,[lcd+25]
    1437: 62 D0 00 MOV   REG[0xD0],0x0
    143A: 53 57    MOV   [__r0],A
    143C: 18       POP   A
    143D: 5C       MOV   X,A
    143E: 51 57    MOV   A,[__r0]
    1440: 7C 19 B7 LCALL __plcall
    1443: 38 FC    ADD   SP,0xFC
    1445: 62 D0 00 MOV   REG[0xD0],0x0
    1448: 20       POP   X
(0073) 		MI2C_Waitms(200);
    1449: 50 00    MOV   A,0x0
    144B: 08       PUSH  A
    144C: 50 C8    MOV   A,0xC8
    144E: 08       PUSH  A
    144F: 7C 18 28 LCALL _MI2C_Waitms
    1452: 38 FE    ADD   SP,0xFE
(0074) 	}
    1454: 8D FD    JMP   0x1252
(0075) }
FILE: Z:\tmp\Modulio\Proj\V9\PSoC1\lib_modulio\modulio_common.c
(0001) //=======================================
(0002) //= Modulio Common Library		=
(0003) //=					=
(0004) //=======================================
(0005) //
(0006) #include "Modulio.h"
(0007) #define EXTERN
(0008) #include "Modulio_HAL.h"
(0009) #undef EXTERN
(0010) 
(0011) //=======================================
(0012) //= Middle Level I2C API		=
(0013) //= xAPI			=
(0014) //=					=
(0015) //=======================================
(0016) //
(0017) 
(0018) //---------------------------------------
(0019) //- Write multiple data on I2C		-
(0020) //- oCg			-
(0021) //-					-
(0022) //- Return Valueil)		-
(0023) //- ==MI2C_NAKslave(0x00)		-
(0024) //-	Error occured on I2C bus	-
(0025) //-	G[		-
(0026) //- == MI2C_ACKslave			-
(0027) //-	Xfr complete with no error	-
(0028) //-	I			-
(0029) //---------------------------------------
(0030) //
(0031) static UINT8 MI2C_bWriteBytes(UINT8 bSlaveAddr, UINT8 *pbXferData, UINT8 bCnt, UINT8 bMode)
(0032) {
modulio_common.c:MI2C_bWriteBytes:
  counts               --> X+1
  stat                 --> X+0
  bMode                --> X-8
  bCnt                 --> X-7
  pbXferData           --> X-6
  bSlaveAddr           --> X-4
    145B: 10       PUSH  X
    145C: 4F       MOV   X,SP
    145D: 38 02    ADD   SP,0x2
(0033) 	UINT8 stat;
(0034) 	UINT8 counts;
(0035) 	stat = MI2C_ACKslave;
    145F: 56 00 00 MOV   [X+0],0x0
(0036) 	if ((bSlaveAddr & 0x80)==0x00) {	// Send SlaveAddr if it is valid(0x00-0x7f)
    1462: 48 FC 80 TST   [X-4],0x80
    1465: B0 37    JNZ   0x149D
(0037) 						// X[uAhX0x00`0x7fAhXw
(0038) 		if (bMode & MI2C_RepStart)
    1467: 48 F8 01 TST   [X-8],0x1
    146A: A0 13    JZ    0x147E
(0039) 			stat = MI2C_fSendRepStart(bSlaveAddr, MI2C_WRITE);
    146C: 50 00    MOV   A,0x0
    146E: 08       PUSH  A
    146F: 52 FC    MOV   A,[X-4]
    1471: 08       PUSH  A
    1472: 7C 18 61 LCALL _MI2C_fSendRepStart
    1475: 38 FE    ADD   SP,0xFE
    1477: 62 D0 00 MOV   REG[0xD0],0x0
    147A: 54 00    MOV   [X+0],A
    147C: 80 11    JMP   0x148E
(0040) 		else	stat = MI2C_fSendStart(bSlaveAddr, MI2C_WRITE);
    147E: 50 00    MOV   A,0x0
    1480: 08       PUSH  A
    1481: 52 FC    MOV   A,[X-4]
    1483: 08       PUSH  A
    1484: 7C 18 37 LCALL _MI2C_fSendStart
    1487: 38 FE    ADD   SP,0xFE
    1489: 62 D0 00 MOV   REG[0xD0],0x0
    148C: 54 00    MOV   [X+0],A
(0041) 		if (stat != MI2C_ACKslave) {
    148E: 3D 00 00 CMP   [X+0],0x0
    1491: A0 0B    JZ    0x149D
(0042) 			MI2C_SendStop();
    1493: 7C 18 8B LCALL _MI2C_SendStop
(0043) 			return(stat);
    1496: 52 00    MOV   A,[X+0]
    1498: 62 D0 00 MOV   REG[0xD0],0x0
    149B: 80 3A    JMP   0x14D6
(0044) 		}
(0045) 	}
(0046) 	for (counts = 0; counts < bCnt; counts++) {
    149D: 56 01 00 MOV   [X+1],0x0
    14A0: 80 22    JMP   0x14C3
(0047) 		stat = MI2C_fWrite(*pbXferData);
    14A2: 62 D0 00 MOV   REG[0xD0],0x0
    14A5: 52 FB    MOV   A,[X-5]
    14A7: 53 56    MOV   [__r1],A
    14A9: 52 FA    MOV   A,[X-6]
    14AB: 60 D4    MOV   REG[0xD4],A
    14AD: 3E 56    MVI   A,[__r1]
    14AF: 08       PUSH  A
    14B0: 7C 18 91 LCALL _MI2C_fWrite
    14B3: 38 FF    ADD   SP,0xFF
    14B5: 62 D0 00 MOV   REG[0xD0],0x0
    14B8: 54 00    MOV   [X+0],A
(0048) 		if (stat != MI2C_ACKslave)
    14BA: 3D 00 00 CMP   [X+0],0x0
    14BD: A0 03    JZ    0x14C1
(0049) 			break;
    14BF: 80 09    JMP   0x14C9
(0050) 	}
    14C1: 77 01    INC   [X+1]
    14C3: 52 01    MOV   A,[X+1]
    14C5: 3B F9    CMP   A,[X-7]
    14C7: CF DA    JC    0x14A2
(0051) 
(0052) 	if (bMode & MI2C_NoStop)
    14C9: 48 F8 02 TST   [X-8],0x2
(0053) 		;
    14CC: B0 04    JNZ   0x14D1
(0054) 	else	MI2C_SendStop();
    14CE: 7C 18 8B LCALL _MI2C_SendStop
(0055) 	return(stat);
    14D1: 52 00    MOV   A,[X+0]
    14D3: 62 D0 00 MOV   REG[0xD0],0x0
    14D6: 38 FE    ADD   SP,0xFE
    14D8: 20       POP   X
    14D9: 7F       RET   
(0056) }
(0057) 
(0058) 
(0059) //---------------------------------------
(0060) //- Read multiple data on I2C		-
(0061) //- oCg			-
(0062) //-					-
(0063) //- Return Valueil)		-
(0064) //- ==MI2C_NAKslave(0x00)		-
(0065) //-	Error occured on I2C bus	-
(0066) //-	G[		-
(0067) //- == MI2C_ACKslave			-
(0068) //-	Xfr complete with no error	-
(0069) //-	I			-
(0070) //---------------------------------------
(0071) //
(0072) static UINT8 MI2C_fReadBytes(UINT8 bSlaveAddr, UINT8 *pbXferData, UINT8 bCnt, UINT8 bMode)
(0073) {
modulio_common.c:MI2C_fReadBytes:
  stat                 --> X+1
  counts               --> X+0
  bMode                --> X-8
  bCnt                 --> X-7
  pbXferData           --> X-6
  bSlaveAddr           --> X-4
    14DA: 10       PUSH  X
    14DB: 4F       MOV   X,SP
    14DC: 38 04    ADD   SP,0x4
(0074) 	UINT8 stat;
(0075) 	UINT8 counts;
(0076) 	stat = MI2C_ACKslave;
    14DE: 56 01 00 MOV   [X+1],0x0
(0077) 	if ((bSlaveAddr & 0x80)==0x00) {	// Send SlaveAddr if it is valid(0x00-0x7f)
    14E1: 48 FC 80 TST   [X-4],0x80
    14E4: B0 37    JNZ   0x151C
(0078) 						// X[uAhX0x00`0x7fAhXw
(0079) 		if (bMode & MI2C_RepStart)
    14E6: 48 F8 01 TST   [X-8],0x1
    14E9: A0 13    JZ    0x14FD
(0080) 			stat = MI2C_fSendRepStart(bSlaveAddr, MI2C_READ);
    14EB: 50 01    MOV   A,0x1
    14ED: 08       PUSH  A
    14EE: 52 FC    MOV   A,[X-4]
    14F0: 08       PUSH  A
    14F1: 7C 18 61 LCALL _MI2C_fSendRepStart
    14F4: 38 FE    ADD   SP,0xFE
    14F6: 62 D0 00 MOV   REG[0xD0],0x0
    14F9: 54 01    MOV   [X+1],A
    14FB: 80 11    JMP   0x150D
(0081) 		else	stat = MI2C_fSendStart(bSlaveAddr, MI2C_READ);
    14FD: 50 01    MOV   A,0x1
    14FF: 08       PUSH  A
    1500: 52 FC    MOV   A,[X-4]
    1502: 08       PUSH  A
    1503: 7C 18 37 LCALL _MI2C_fSendStart
    1506: 38 FE    ADD   SP,0xFE
    1508: 62 D0 00 MOV   REG[0xD0],0x0
    150B: 54 01    MOV   [X+1],A
(0082) 		if (stat != MI2C_ACKslave) {
    150D: 3D 01 00 CMP   [X+1],0x0
    1510: A0 0B    JZ    0x151C
(0083) 			MI2C_SendStop();
    1512: 7C 18 8B LCALL _MI2C_SendStop
(0084) 			return(stat);
    1515: 52 01    MOV   A,[X+1]
    1517: 62 D0 00 MOV   REG[0xD0],0x0
    151A: 80 67    JMP   0x1582
(0085) 		}
(0086) 	}
(0087) 	for (counts = 1; counts < bCnt; counts++) {
    151C: 56 00 01 MOV   [X+0],0x1
    151F: 80 3B    JMP   0x155B
(0088) 		*pbXferData++ = MI2C_bRead(MI2C_fACK);
    1521: 62 D0 00 MOV   REG[0xD0],0x0
    1524: 52 FB    MOV   A,[X-5]
    1526: 53 56    MOV   [__r1],A
    1528: 52 FA    MOV   A,[X-6]
    152A: 53 57    MOV   [__r0],A
    152C: 51 56    MOV   A,[__r1]
    152E: 54 03    MOV   [X+3],A
    1530: 51 57    MOV   A,[__r0]
    1532: 54 02    MOV   [X+2],A
    1534: 51 56    MOV   A,[__r1]
    1536: 01 01    ADD   A,0x1
    1538: 54 FB    MOV   [X-5],A
    153A: 51 57    MOV   A,[__r0]
    153C: 09 00    ADC   A,0x0
    153E: 54 FA    MOV   [X-6],A
    1540: 50 01    MOV   A,0x1
    1542: 08       PUSH  A
    1543: 7C 18 B7 LCALL _MI2C_bRead
    1546: 38 FF    ADD   SP,0xFF
    1548: 62 D0 00 MOV   REG[0xD0],0x0
    154B: 53 57    MOV   [__r0],A
    154D: 52 03    MOV   A,[X+3]
    154F: 53 54    MOV   [__r3],A
    1551: 52 02    MOV   A,[X+2]
    1553: 60 D5    MOV   REG[0xD5],A
    1555: 51 57    MOV   A,[__r0]
    1557: 3F 54    MVI   [__r3],A
(0089) 	}
    1559: 77 00    INC   [X+0]
    155B: 52 00    MOV   A,[X+0]
    155D: 3B F9    CMP   A,[X-7]
    155F: CF C1    JC    0x1521
(0090) 	*pbXferData = MI2C_bRead(MI2C_fNAK);
    1561: 50 00    MOV   A,0x0
    1563: 08       PUSH  A
    1564: 7C 18 B7 LCALL _MI2C_bRead
    1567: 38 FF    ADD   SP,0xFF
    1569: 62 D0 00 MOV   REG[0xD0],0x0
    156C: 53 57    MOV   [__r0],A
    156E: 52 FB    MOV   A,[X-5]
    1570: 53 54    MOV   [__r3],A
    1572: 52 FA    MOV   A,[X-6]
    1574: 60 D5    MOV   REG[0xD5],A
    1576: 51 57    MOV   A,[__r0]
    1578: 3F 54    MVI   [__r3],A
(0091) 	MI2C_SendStop();
    157A: 7C 18 8B LCALL _MI2C_SendStop
(0092) 	return(stat);
    157D: 52 01    MOV   A,[X+1]
    157F: 62 D0 00 MOV   REG[0xD0],0x0
    1582: 38 FC    ADD   SP,0xFC
    1584: 20       POP   X
    1585: 7F       RET   
(0093) }
(0094) 
(0095) //=======================================
(0096) //= Public (High Level) I2C API		=
(0097) //= JixjAPI			=
(0098) //=					=
(0099) //=======================================
(0100) //
(0101) 
(0102) 
(0103) //---------------------------------------
(0104) //- Write multi-byte data on I2C	-
(0105) //- oCg			-
(0106) //-					-
(0107) //- Return Valueil)		-
(0108) //- ==MI2C_NAKslave(0x00)		-
(0109) //-	Error occured on I2C bus	-
(0110) //-	G[		-
(0111) //- == MI2C_ACKslave			-
(0112) //-	Xfr complete with no error	-
(0113) //-	I			-
(0114) //---------------------------------------
(0115) //
(0116) UINT8 MI2C_WriteBytes(MI2CADRS *adrs, UINT16 Reg, UINT8 *Data, UINT8 Length)
(0117) {
_MI2C_WriteBytes:
  reg                  --> X+1
  stat                 --> X+0
  Length               --> X-10
  Data                 --> X-9
  Reg                  --> X-7
  adrs                 --> X-5
    1586: 10       PUSH  X
    1587: 4F       MOV   X,SP
    1588: 38 02    ADD   SP,0x2
(0118) 	UINT8 stat,reg;
(0119) 	reg = Reg & 0xff;
    158A: 62 D0 00 MOV   REG[0xD0],0x0
    158D: 52 FA    MOV   A,[X-6]
    158F: 54 01    MOV   [X+1],A
(0120) 	if (adrs->BSW_ADRS != 0) {	// Setup channel of bus switch
    1591: 52 FC    MOV   A,[X-4]
    1593: 53 56    MOV   [__r1],A
    1595: 52 FB    MOV   A,[X-5]
    1597: 60 D4    MOV   REG[0xD4],A
    1599: 3E 56    MVI   A,[__r1]
    159B: 39 00    CMP   A,0x0
    159D: A0 51    JZ    0x15EF
(0121) 					// oXXCb``l
(0122) 		stat = 1 << ((adrs->BSW_CH) & 0x3);
    159F: 52 FC    MOV   A,[X-4]
    15A1: 01 01    ADD   A,0x1
    15A3: 53 56    MOV   [__r1],A
    15A5: 52 FB    MOV   A,[X-5]
    15A7: 09 00    ADC   A,0x0
    15A9: 60 D4    MOV   REG[0xD4],A
    15AB: 3E 56    MVI   A,[__r1]
    15AD: 53 57    MOV   [__r0],A
    15AF: 26 57 03 AND   [__r0],0x3
    15B2: 55 55 01 MOV   [__r2],0x1
    15B5: 51 57    MOV   A,[__r0]
    15B7: A0 09    JZ    0x15C1
    15B9: 62 D0 00 MOV   REG[0xD0],0x0
    15BC: 65 55    ASL   [__r2]
    15BE: 78       DEC   A
    15BF: BF F9    JNZ   0x15B9
    15C1: 62 D0 00 MOV   REG[0xD0],0x0
    15C4: 51 55    MOV   A,[__r2]
    15C6: 54 00    MOV   [X+0],A
(0123) 		stat = MI2C_bWriteBytes(adrs->BSW_ADRS, &stat, 1, MI2C_CompleteXfer);
    15C8: 50 00    MOV   A,0x0
    15CA: 08       PUSH  A
    15CB: 50 01    MOV   A,0x1
    15CD: 08       PUSH  A
    15CE: 50 07    MOV   A,0x7
    15D0: 08       PUSH  A
    15D1: 10       PUSH  X
    15D2: 52 FC    MOV   A,[X-4]
    15D4: 53 56    MOV   [__r1],A
    15D6: 52 FB    MOV   A,[X-5]
    15D8: 60 D4    MOV   REG[0xD4],A
    15DA: 3E 56    MVI   A,[__r1]
    15DC: 08       PUSH  A
    15DD: 9E 7C    CALL  modulio_common.c:MI2C_bWriteBytes
    15DF: 38 FB    ADD   SP,0xFB
    15E1: 62 D0 00 MOV   REG[0xD0],0x0
    15E4: 54 00    MOV   [X+0],A
(0124) 		if (stat != MI2C_ACKslave)
    15E6: 3D 00 00 CMP   [X+0],0x0
    15E9: A0 05    JZ    0x15EF
(0125) 			return(stat);
    15EB: 52 00    MOV   A,[X+0]
    15ED: 80 72    JMP   0x1660
(0126) 	}
(0127) 	if (Reg != REG_ADRS_NONE) {	// Register number is valid
    15EF: 3D F9 FF CMP   [X-7],0xFF
    15F2: B0 06    JNZ   0x15F9
    15F4: 3D FA FF CMP   [X-6],0xFF
    15F7: A0 3B    JZ    0x1633
(0128) 					// WX^w
(0129) 		stat = MI2C_bWriteBytes(adrs->DEV_ADRS,	// Send register number
    15F9: 50 02    MOV   A,0x2
    15FB: 08       PUSH  A
    15FC: 50 01    MOV   A,0x1
    15FE: 08       PUSH  A
    15FF: 62 D0 00 MOV   REG[0xD0],0x0
    1602: 5A 56    MOV   [__r1],X
    1604: 06 56 01 ADD   [__r1],0x1
    1607: 50 07    MOV   A,0x7
    1609: 08       PUSH  A
    160A: 51 56    MOV   A,[__r1]
    160C: 08       PUSH  A
    160D: 52 FC    MOV   A,[X-4]
    160F: 01 02    ADD   A,0x2
    1611: 53 56    MOV   [__r1],A
    1613: 52 FB    MOV   A,[X-5]
    1615: 09 00    ADC   A,0x0
    1617: 60 D4    MOV   REG[0xD4],A
    1619: 3E 56    MVI   A,[__r1]
    161B: 08       PUSH  A
    161C: 9E 3D    CALL  modulio_common.c:MI2C_bWriteBytes
    161E: 38 FB    ADD   SP,0xFB
    1620: 62 D0 00 MOV   REG[0xD0],0x0
    1623: 54 00    MOV   [X+0],A
(0130) 				 &reg,			// WX^
(0131) 				 1,
(0132) 				 MI2C_NoStop);
(0133) 		if (stat != MI2C_ACKslave)
    1625: 3D 00 00 CMP   [X+0],0x0
    1628: A0 05    JZ    0x162E
(0134) 			return(stat);
    162A: 52 00    MOV   A,[X+0]
    162C: 80 33    JMP   0x1660
(0135) 		stat = DEV_ADRS_NONE;
    162E: 56 00 FF MOV   [X+0],0xFF
(0136) 	} else {
    1631: 80 14    JMP   0x1646
(0137) 		stat = adrs->DEV_ADRS;
    1633: 62 D0 00 MOV   REG[0xD0],0x0
    1636: 52 FC    MOV   A,[X-4]
    1638: 01 02    ADD   A,0x2
    163A: 53 56    MOV   [__r1],A
    163C: 52 FB    MOV   A,[X-5]
    163E: 09 00    ADC   A,0x0
    1640: 60 D4    MOV   REG[0xD4],A
    1642: 3E 56    MVI   A,[__r1]
    1644: 54 00    MOV   [X+0],A
(0138) 	}
(0139) 	stat = MI2C_bWriteBytes(	// Perform write operation
    1646: 50 00    MOV   A,0x0
    1648: 08       PUSH  A
    1649: 52 F6    MOV   A,[X-10]
    164B: 08       PUSH  A
    164C: 52 F7    MOV   A,[X-9]
    164E: 08       PUSH  A
    164F: 52 F8    MOV   A,[X-8]
    1651: 08       PUSH  A
    1652: 52 00    MOV   A,[X+0]
    1654: 08       PUSH  A
    1655: 9E 04    CALL  modulio_common.c:MI2C_bWriteBytes
    1657: 38 FB    ADD   SP,0xFB
    1659: 62 D0 00 MOV   REG[0xD0],0x0
    165C: 54 00    MOV   [X+0],A
(0140) 			stat,		// f[^s
(0141) 			Data,
(0142) 			Length,
(0143) 			MI2C_CompleteXfer);
(0144) 	return(stat);
    165E: 52 00    MOV   A,[X+0]
    1660: 38 FE    ADD   SP,0xFE
    1662: 20       POP   X
    1663: 7F       RET   
(0145) }
(0146) 
(0147) 
(0148) //---------------------------------------
(0149) //- Write a single-byte data on I2C	-
(0150) //- 1oCg			-
(0151) //-					-
(0152) //- Return Valueil)		-
(0153) //- ==MI2C_NAKslave(0x00)		-
(0154) //-	Error occured on I2C bus	-
(0155) //-	G[		-
(0156) //- == MI2C_ACKslave			-
(0157) //-	Xfr complete with no error	-
(0158) //-	I			-
(0159) //---------------------------------------
(0160) //
(0161) UINT8 MI2C_WriteByte(MI2CADRS *adrs, UINT16 Reg, UINT8 Data)
(0162) {
_MI2C_WriteByte:
  Data                 --> X-8
  Reg                  --> X-7
  adrs                 --> X-5
    1664: 10       PUSH  X
    1665: 4F       MOV   X,SP
(0163) 	return(MI2C_WriteBytes(adrs, Reg, &Data, 1));
    1666: 50 01    MOV   A,0x1
    1668: 08       PUSH  A
    1669: 62 D0 00 MOV   REG[0xD0],0x0
    166C: 5A 56    MOV   [__r1],X
    166E: 16 56 08 SUB   [__r1],0x8
    1671: 50 07    MOV   A,0x7
    1673: 08       PUSH  A
    1674: 51 56    MOV   A,[__r1]
    1676: 08       PUSH  A
    1677: 52 F9    MOV   A,[X-7]
    1679: 08       PUSH  A
    167A: 52 FA    MOV   A,[X-6]
    167C: 08       PUSH  A
    167D: 52 FB    MOV   A,[X-5]
    167F: 08       PUSH  A
    1680: 52 FC    MOV   A,[X-4]
    1682: 08       PUSH  A
    1683: 9F 01    CALL  _MI2C_WriteBytes
    1685: 38 F9    ADD   SP,0xF9
    1687: 62 D0 00 MOV   REG[0xD0],0x0
    168A: 20       POP   X
    168B: 7F       RET   
(0164) }
(0165) 
(0166) 
(0167) //---------------------------------------
(0168) //- Read a multi-byte data from I2C	-
(0169) //- oCg			-
(0170) //-					-
(0171) //- Return Valueil)		-
(0172) //- ==MI2C_NAKslave(0x00)		-
(0173) //-	Error occured on I2C bus	-
(0174) //-	G[		-
(0175) //- == MI2C_ACKslave			-
(0176) //-	Xfr complete with no error	-
(0177) //-	I			-
(0178) //---------------------------------------
(0179) //
(0180) UINT8 MI2C_ReadBytes(MI2CADRS *adrs, UINT16 Reg, UINT8 *Data, UINT8 Length)
(0181) {
_MI2C_ReadBytes:
  reg                  --> X+2
  Mode                 --> X+1
  stat                 --> X+0
  Length               --> X-10
  Data                 --> X-9
  Reg                  --> X-7
  adrs                 --> X-5
    168C: 10       PUSH  X
    168D: 4F       MOV   X,SP
    168E: 38 03    ADD   SP,0x3
(0182) 	UINT8 Mode,reg,stat;
(0183) 	reg = Reg & 0xff;
    1690: 62 D0 00 MOV   REG[0xD0],0x0
    1693: 52 FA    MOV   A,[X-6]
    1695: 54 02    MOV   [X+2],A
(0184) 	if (adrs->BSW_ADRS != 0) {	// Setup channel number of bus switch
    1697: 52 FC    MOV   A,[X-4]
    1699: 53 56    MOV   [__r1],A
    169B: 52 FB    MOV   A,[X-5]
    169D: 60 D4    MOV   REG[0xD4],A
    169F: 3E 56    MVI   A,[__r1]
    16A1: 39 00    CMP   A,0x0
    16A3: A0 51    JZ    0x16F5
(0185) 					// `l
(0186) 		stat = 1 << ((adrs->BSW_CH) & 0x3);
    16A5: 52 FC    MOV   A,[X-4]
    16A7: 01 01    ADD   A,0x1
    16A9: 53 56    MOV   [__r1],A
    16AB: 52 FB    MOV   A,[X-5]
    16AD: 09 00    ADC   A,0x0
    16AF: 60 D4    MOV   REG[0xD4],A
    16B1: 3E 56    MVI   A,[__r1]
    16B3: 53 57    MOV   [__r0],A
    16B5: 26 57 03 AND   [__r0],0x3
    16B8: 55 55 01 MOV   [__r2],0x1
    16BB: 51 57    MOV   A,[__r0]
    16BD: A0 09    JZ    0x16C7
    16BF: 62 D0 00 MOV   REG[0xD0],0x0
    16C2: 65 55    ASL   [__r2]
    16C4: 78       DEC   A
    16C5: BF F9    JNZ   0x16BF
    16C7: 62 D0 00 MOV   REG[0xD0],0x0
    16CA: 51 55    MOV   A,[__r2]
    16CC: 54 00    MOV   [X+0],A
(0187) 		stat = MI2C_bWriteBytes(adrs->BSW_ADRS, &stat, 1, MI2C_CompleteXfer);
    16CE: 50 00    MOV   A,0x0
    16D0: 08       PUSH  A
    16D1: 50 01    MOV   A,0x1
    16D3: 08       PUSH  A
    16D4: 50 07    MOV   A,0x7
    16D6: 08       PUSH  A
    16D7: 10       PUSH  X
    16D8: 52 FC    MOV   A,[X-4]
    16DA: 53 56    MOV   [__r1],A
    16DC: 52 FB    MOV   A,[X-5]
    16DE: 60 D4    MOV   REG[0xD4],A
    16E0: 3E 56    MVI   A,[__r1]
    16E2: 08       PUSH  A
    16E3: 9D 76    CALL  modulio_common.c:MI2C_bWriteBytes
    16E5: 38 FB    ADD   SP,0xFB
    16E7: 62 D0 00 MOV   REG[0xD0],0x0
    16EA: 54 00    MOV   [X+0],A
(0188) 		if (stat != MI2C_ACKslave)
    16EC: 3D 00 00 CMP   [X+0],0x0
    16EF: A0 05    JZ    0x16F5
(0189) 			return(stat);
    16F1: 52 00    MOV   A,[X+0]
    16F3: 80 71    JMP   0x1765
(0190) 	}
(0191) 	if (Reg != REG_ADRS_NONE) {	// Write register address if it is valid
    16F5: 3D F9 FF CMP   [X-7],0xFF
    16F8: B0 06    JNZ   0x16FF
    16FA: 3D FA FF CMP   [X-6],0xFF
    16FD: A0 3B    JZ    0x1739
(0192) 					// WX^AhXw
(0193) 		stat = MI2C_bWriteBytes(adrs->DEV_ADRS,	// Send register number
    16FF: 50 02    MOV   A,0x2
    1701: 08       PUSH  A
    1702: 50 01    MOV   A,0x1
    1704: 08       PUSH  A
    1705: 62 D0 00 MOV   REG[0xD0],0x0
    1708: 5A 56    MOV   [__r1],X
    170A: 06 56 02 ADD   [__r1],0x2
    170D: 50 07    MOV   A,0x7
    170F: 08       PUSH  A
    1710: 51 56    MOV   A,[__r1]
    1712: 08       PUSH  A
    1713: 52 FC    MOV   A,[X-4]
    1715: 01 02    ADD   A,0x2
    1717: 53 56    MOV   [__r1],A
    1719: 52 FB    MOV   A,[X-5]
    171B: 09 00    ADC   A,0x0
    171D: 60 D4    MOV   REG[0xD4],A
    171F: 3E 56    MVI   A,[__r1]
    1721: 08       PUSH  A
    1722: 9D 37    CALL  modulio_common.c:MI2C_bWriteBytes
    1724: 38 FB    ADD   SP,0xFB
    1726: 62 D0 00 MOV   REG[0xD0],0x0
    1729: 54 00    MOV   [X+0],A
(0194) 				 &reg,			// WX^
(0195) 				 1,
(0196) 				 MI2C_NoStop);
(0197) 		if (stat != MI2C_ACKslave)
    172B: 3D 00 00 CMP   [X+0],0x0
    172E: A0 05    JZ    0x1734
(0198) 			return(stat);
    1730: 52 00    MOV   A,[X+0]
    1732: 80 32    JMP   0x1765
(0199) 		Mode = MI2C_RepStart;	// REP.START should be used for following read operation
    1734: 56 01 01 MOV   [X+1],0x1
(0200) 					// [hREPEATED STARTRfBV
(0201) 	} else {
    1737: 80 04    JMP   0x173C
(0202) 		Mode = MI2C_CompleteXfer;	// START should be used for following read operation
    1739: 56 01 00 MOV   [X+1],0x0
(0203) 	}					// [hSTART
(0204) 	stat = MI2C_fReadBytes(adrs->DEV_ADRS,	// Perform read operation
    173C: 52 01    MOV   A,[X+1]
    173E: 08       PUSH  A
    173F: 52 F6    MOV   A,[X-10]
    1741: 08       PUSH  A
    1742: 52 F7    MOV   A,[X-9]
    1744: 08       PUSH  A
    1745: 52 F8    MOV   A,[X-8]
    1747: 08       PUSH  A
    1748: 62 D0 00 MOV   REG[0xD0],0x0
    174B: 52 FC    MOV   A,[X-4]
    174D: 01 02    ADD   A,0x2
    174F: 53 56    MOV   [__r1],A
    1751: 52 FB    MOV   A,[X-5]
    1753: 09 00    ADC   A,0x0
    1755: 60 D4    MOV   REG[0xD4],A
    1757: 3E 56    MVI   A,[__r1]
    1759: 08       PUSH  A
    175A: 9D 7E    CALL  modulio_common.c:MI2C_fReadBytes
    175C: 38 FB    ADD   SP,0xFB
    175E: 62 D0 00 MOV   REG[0xD0],0x0
    1761: 54 00    MOV   [X+0],A
(0205) 			Data,			// [hs
(0206) 			Length,
(0207) 			Mode);
(0208) 	return(stat);
    1763: 52 00    MOV   A,[X+0]
    1765: 38 FD    ADD   SP,0xFD
    1767: 20       POP   X
    1768: 7F       RET   
(0209) }
(0210) 
(0211) 
(0212) //---------------------------------------
(0213) //- Read a single-byte data from I2C	-
(0214) //- 1oCg			-
(0215) //-					-
(0216) //- Return Valueil)		-
(0217) //-	None				-
(0218) //-	ij			-
(0219) //---------------------------------------
(0220) //
(0221) UINT8 MI2C_ReadByte(MI2CADRS *adrs, UINT16 Reg, UINT8 *Data)
(0222) {
_MI2C_ReadByte:
  sts                  --> X+0
  Data                 --> X-9
  Reg                  --> X-7
  adrs                 --> X-5
    1769: 10       PUSH  X
    176A: 4F       MOV   X,SP
    176B: 38 01    ADD   SP,0x1
(0223) 	UINT8 sts;
(0224) 	sts = MI2C_ReadBytes(adrs, Reg, Data, 1);
    176D: 50 01    MOV   A,0x1
    176F: 08       PUSH  A
    1770: 52 F7    MOV   A,[X-9]
    1772: 08       PUSH  A
    1773: 52 F8    MOV   A,[X-8]
    1775: 08       PUSH  A
    1776: 52 F9    MOV   A,[X-7]
    1778: 08       PUSH  A
    1779: 52 FA    MOV   A,[X-6]
    177B: 08       PUSH  A
    177C: 52 FB    MOV   A,[X-5]
    177E: 08       PUSH  A
    177F: 52 FC    MOV   A,[X-4]
    1781: 08       PUSH  A
    1782: 9F 08    CALL  _MI2C_ReadBytes
    1784: 38 F9    ADD   SP,0xF9
    1786: 62 D0 00 MOV   REG[0xD0],0x0
    1789: 54 00    MOV   [X+0],A
(0225) 	return(sts);
    178B: 52 00    MOV   A,[X+0]
    178D: 38 FF    ADD   SP,0xFF
    178F: 20       POP   X
    1790: 7F       RET   
(0226) }
(0227) 
(0228) 
(0229) //---------------------------------------
(0230) //- Setup MI2CADRS database		-
(0231) //- MI2CADRS			-
(0232) //- Return Valueil)		-
(0233) //-	None				-
(0234) //-	ij			-
(0235) //---------------------------------------
(0236) //
(0237) void MI2C_Setup(MI2CADRS *adrs,
(0238) 		UINT8 bswadrs,
(0239) 		UINT8 bswch,
(0240) 		UINT8 devadrs,
(0241) 		UINT8 option)
(0242) {
_MI2C_Setup:
  option               --> X-9
  devadrs              --> X-8
  bswch                --> X-7
  bswadrs              --> X-6
  adrs                 --> X-5
    1791: 10       PUSH  X
    1792: 4F       MOV   X,SP
(0243) 	adrs->BSW_ADRS = bswadrs;
    1793: 62 D0 00 MOV   REG[0xD0],0x0
    1796: 52 FC    MOV   A,[X-4]
    1798: 53 56    MOV   [__r1],A
    179A: 52 FB    MOV   A,[X-5]
    179C: 60 D5    MOV   REG[0xD5],A
    179E: 52 FA    MOV   A,[X-6]
    17A0: 3F 56    MVI   [__r1],A
(0244) 	adrs->BSW_CH = bswch;
    17A2: 52 FC    MOV   A,[X-4]
    17A4: 01 01    ADD   A,0x1
    17A6: 53 56    MOV   [__r1],A
    17A8: 52 FB    MOV   A,[X-5]
    17AA: 09 00    ADC   A,0x0
    17AC: 60 D5    MOV   REG[0xD5],A
    17AE: 52 F9    MOV   A,[X-7]
    17B0: 3F 56    MVI   [__r1],A
(0245) 	adrs->DEV_ADRS = devadrs;
    17B2: 52 FC    MOV   A,[X-4]
    17B4: 01 02    ADD   A,0x2
    17B6: 53 56    MOV   [__r1],A
    17B8: 52 FB    MOV   A,[X-5]
    17BA: 09 00    ADC   A,0x0
    17BC: 60 D5    MOV   REG[0xD5],A
    17BE: 52 F8    MOV   A,[X-8]
    17C0: 3F 56    MVI   [__r1],A
(0246) 	adrs->OPTION_1 = option;
    17C2: 52 FC    MOV   A,[X-4]
    17C4: 01 03    ADD   A,0x3
    17C6: 53 56    MOV   [__r1],A
    17C8: 52 FB    MOV   A,[X-5]
    17CA: 09 00    ADC   A,0x0
    17CC: 60 D5    MOV   REG[0xD5],A
    17CE: 52 F7    MOV   A,[X-9]
    17D0: 3F 56    MVI   [__r1],A
(0247) 	adrs->WriteBytes = &MI2C_WriteBytes;
    17D2: 52 FC    MOV   A,[X-4]
    17D4: 01 04    ADD   A,0x4
    17D6: 53 56    MOV   [__r1],A
    17D8: 52 FB    MOV   A,[X-5]
    17DA: 09 00    ADC   A,0x0
    17DC: 60 D5    MOV   REG[0xD5],A
    17DE: 50 02    MOV   A,0x2
    17E0: 3F 56    MVI   [__r1],A
    17E2: 50 53    MOV   A,0x53
    17E4: 3F 56    MVI   [__r1],A
(0248) 	adrs->WriteByte = &MI2C_WriteByte;
    17E6: 52 FC    MOV   A,[X-4]
    17E8: 01 06    ADD   A,0x6
    17EA: 53 56    MOV   [__r1],A
    17EC: 52 FB    MOV   A,[X-5]
    17EE: 09 00    ADC   A,0x0
    17F0: 60 D5    MOV   REG[0xD5],A
    17F2: 50 02    MOV   A,0x2
    17F4: 3F 56    MVI   [__r1],A
    17F6: 50 51    MOV   A,0x51
    17F8: 3F 56    MVI   [__r1],A
(0249) 	adrs->ReadBytes = &MI2C_ReadBytes;
    17FA: 52 FC    MOV   A,[X-4]
    17FC: 01 08    ADD   A,0x8
    17FE: 53 56    MOV   [__r1],A
    1800: 52 FB    MOV   A,[X-5]
    1802: 09 00    ADC   A,0x0
    1804: 60 D5    MOV   REG[0xD5],A
    1806: 50 02    MOV   A,0x2
    1808: 3F 56    MVI   [__r1],A
    180A: 50 4F    MOV   A,0x4F
    180C: 3F 56    MVI   [__r1],A
(0250) 	adrs->ReadByte = &MI2C_ReadByte;
    180E: 52 FC    MOV   A,[X-4]
    1810: 01 0A    ADD   A,0xA
    1812: 53 56    MOV   [__r1],A
    1814: 52 FB    MOV   A,[X-5]
    1816: 09 00    ADC   A,0x0
    1818: 60 D5    MOV   REG[0xD5],A
    181A: 50 02    MOV   A,0x2
    181C: 3F 56    MVI   [__r1],A
    181E: 50 4D    MOV   A,0x4D
    1820: 3F 56    MVI   [__r1],A
(0251) 	return;
    1822: 20       POP   X
    1823: 7F       RET   
(0252) }
(0253) 
(0254) //---------------------------------------
(0255) //- Initialize I2C hardware		-
(0256) //- I2Cn[hEFA		-
(0257) //- Return Valueil)		-
(0258) //-	None				-
(0259) //-	ij			-
(0260) //---------------------------------------
(0261) //
(0262) void MI2C_Start(void)
(0263) {
(0264) 	MI2C_Startup();
_MI2C_Start:
    1824: 7C 19 05 LCALL _MI2C_Startup
    1827: 7F       RET   
(0265) }
(0266) 
(0267) 
(0268) //=======================================
(0269) //= Delay N(ms)				=
(0270) //= N~bfBC			=
(0271) //=======================================
(0272) void MI2C_Waitms(UINT16 delay)
(0273) {
_MI2C_Waitms:
  delay                --> X-5
    1828: 10       PUSH  X
    1829: 4F       MOV   X,SP
(0274) 	MI2C_WaitMills(delay);
    182A: 52 FB    MOV   A,[X-5]
(0275) }
(0276) 
FILE: Z:\tmp\Modulio\Proj\V9\PSoC1\lib_modulio\Modulio_PSOC1.h
(0001) //=======================================
(0002) //= Modulio Device depend Library Header=
(0003) //=					=
(0004) //=======================================
(0005) //
(0006) #include "m8c.h"
(0007) #include "PSoCAPI.h"
(0008) 
(0009) #define EXTERN
(0010) #include "Modulio.h"
(0011) #undef EXTERN
(0012) #include "Modulio_HAL.h"
(0013) 
(0014) //=======================================
(0015) //= Low Level I2C API			=
(0016) //= xAPI				=
(0017) //=					=
(0018) //=======================================
(0019) 
(0020) //---------------------------------------
(0021) //- Generate START condition on I2C	-
(0022) //- X^[gRfBV		-
(0023) //-					-
(0024) //- Return Valueil)		-
(0025) //- ==0: Slave acknowleged		-
(0026) //-	X[u		-
(0027) //- !=0: Slave didn't acknowlege	-
(0028) //-	X[u	-
(0029) //---------------------------------------
(0030) //
(0031) UINT8 MI2C_fSendStart(UINT8 bSlaveAddr, UINT8 fRW)
(0032) {
_MI2C_fSendStart:
  stat                 --> X+0
  fRW                  --> X-5
  bSlaveAddr           --> X-4
    1837: 10       PUSH  X
    1838: 4F       MOV   X,SP
    1839: 38 01    ADD   SP,0x1
(0033) 	UINT8 stat;
(0034) 	stat = I2CHW_1_fSendStart(bSlaveAddr, fRW);
    183B: 10       PUSH  X
    183C: 52 FB    MOV   A,[X-5]
    183E: 08       PUSH  A
    183F: 52 FC    MOV   A,[X-4]
    1841: 20       POP   X
    1842: 7C 05 12 LCALL _I2CHW_1_fSendStart
    1845: 20       POP   X
    1846: 62 D0 00 MOV   REG[0xD0],0x0
    1849: 54 00    MOV   [X+0],A
(0035) 	if (stat == 0)
    184B: 3D 00 00 CMP   [X+0],0x0
    184E: B0 06    JNZ   0x1855
(0036) 		stat = MI2C_NAKslave;
    1850: 56 00 01 MOV   [X+0],0x1
    1853: 80 04    JMP   0x1858
(0037) 	else	stat = MI2C_ACKslave;
    1855: 56 00 00 MOV   [X+0],0x0
(0038) 	return(stat);
    1858: 52 00    MOV   A,[X+0]
    185A: 62 D0 00 MOV   REG[0xD0],0x0
    185D: 38 FF    ADD   SP,0xFF
    185F: 20       POP   X
    1860: 7F       RET   
(0039) }
(0040) 
(0041) 
(0042) //---------------------------------------
(0043) //- Generate Rep.START condition on I2C	-
(0044) //- s[eBbhX^[g		-
(0045) //-					-
(0046) //- Return Valueil)		-
(0047) //- ==0: Slave acknowleged		-
(0048) //-	X[u		-
(0049) //- !=0: Slave didn't acknowlege	-
(0050) //-	X[u	-
(0051) //---------------------------------------
(0052) //
(0053) UINT8 MI2C_fSendRepStart(UINT8 bSlaveAddr, UINT8 fRW)
(0054) {
_MI2C_fSendRepStart:
  stat                 --> X+0
  fRW                  --> X-5
  bSlaveAddr           --> X-4
    1861: 10       PUSH  X
    1862: 4F       MOV   X,SP
    1863: 38 01    ADD   SP,0x1
(0055) 	UINT8 stat;
(0056) 	stat = I2CHW_1_fSendRepeatStart(bSlaveAddr, fRW);
    1865: 10       PUSH  X
    1866: 52 FB    MOV   A,[X-5]
    1868: 08       PUSH  A
    1869: 52 FC    MOV   A,[X-4]
    186B: 20       POP   X
    186C: 7C 04 D6 LCALL _I2CHW_1_fSendRepeatStart
    186F: 20       POP   X
    1870: 62 D0 00 MOV   REG[0xD0],0x0
    1873: 54 00    MOV   [X+0],A
(0057) 	if (stat == 0)
    1875: 3D 00 00 CMP   [X+0],0x0
    1878: B0 06    JNZ   0x187F
(0058) 		stat = MI2C_NAKslave;
    187A: 56 00 01 MOV   [X+0],0x1
    187D: 80 04    JMP   0x1882
(0059) 	else	stat = MI2C_ACKslave;
    187F: 56 00 00 MOV   [X+0],0x0
(0060) 	return(stat);
    1882: 52 00    MOV   A,[X+0]
    1884: 62 D0 00 MOV   REG[0xD0],0x0
    1887: 38 FF    ADD   SP,0xFF
    1889: 20       POP   X
    188A: 7F       RET   
(0061) }
(0062) 
(0063) //---------------------------------------
(0064) //- Generate STOP condition on I2C	-
(0065) //- XgbvRfBV		-
(0066) //-					-
(0067) //- Return Valueil)		-
(0068) //-	None				-
(0069) //-	ij			-
(0070) //---------------------------------------
(0071) //
(0072) void MI2C_SendStop(void)
(0073) {
(0074) 	I2CHW_1_SendStop();
_MI2C_SendStop:
    188B: 10       PUSH  X
    188C: 7C 05 CC LCALL _I2CHW_1_SendStop
    188F: 20       POP   X
    1890: 7F       RET   
(0075) }
(0076) 
(0077) //---------------------------------------
(0078) //- Send a single-byte on I2C bus 	-
(0079) //- PoCgM			-
(0080) //-					-
(0081) //- Return Valueil)		-
(0082) //- !=0x00: Slave faild to acknowlege	-
(0083) //-	X[uG[		-
(0084) //---------------------------------------
(0085) //
(0086) UINT8 MI2C_fWrite(UINT8 bData)
(0087) {
_MI2C_fWrite:
  stat                 --> X+0
  bData                --> X-4
    1891: 10       PUSH  X
    1892: 4F       MOV   X,SP
    1893: 38 01    ADD   SP,0x1
(0088) 	UINT8 stat;
(0089) 	stat = I2CHW_1_fWrite(bData);
    1895: 10       PUSH  X
    1896: 52 FC    MOV   A,[X-4]
    1898: 7C 05 56 LCALL _I2CHW_1_fWrite
    189B: 20       POP   X
    189C: 62 D0 00 MOV   REG[0xD0],0x0
    189F: 54 00    MOV   [X+0],A
(0090) 	if (stat == 0)
    18A1: 3D 00 00 CMP   [X+0],0x0
    18A4: B0 06    JNZ   0x18AB
(0091) 		stat = MI2C_NAKslave;
    18A6: 56 00 01 MOV   [X+0],0x1
    18A9: 80 04    JMP   0x18AE
(0092) 	else	stat = MI2C_ACKslave;
    18AB: 56 00 00 MOV   [X+0],0x0
(0093) 	return(stat);
    18AE: 52 00    MOV   A,[X+0]
    18B0: 62 D0 00 MOV   REG[0xD0],0x0
    18B3: 38 FF    ADD   SP,0xFF
    18B5: 20       POP   X
    18B6: 7F       RET   
(0094) }
(0095) 
(0096) 
(0097) //---------------------------------------
(0098) //- Read a single-byte from I2C bus 	-
(0099) //- PoCgM			-
(0100) //-					-
(0101) //- fACK				-
(0102) //- ==MI2C_NAKslave(==0x00)		-
(0103) //-   Generate NAK after recieving data	-
(0104) //-@ ]INAKi[hIj	-
(0105) //- ==MI2C_ACKslave(!=0x00)		-
(0106) //-   Generate ACK after recieving data	-
(0107) //-@ ]IACKi[hpj	-
(0108) //-					-
(0109) //- Return Valueil)		-
(0110) //-	Data received from slave	-
(0111) //-	f[^		-
(0112) //---------------------------------------
(0113) //
(0114) UINT8 MI2C_bRead(UINT8 fACK)
(0115) {
_MI2C_bRead:
  data                 --> X+0
  fACK                 --> X-4
    18B7: 10       PUSH  X
    18B8: 4F       MOV   X,SP
    18B9: 38 01    ADD   SP,0x1
(0116) 	UINT8 data;
(0117) 	data = I2CHW_1_bRead(fACK);
    18BB: 10       PUSH  X
    18BC: 52 FC    MOV   A,[X-4]
    18BE: 7C 05 96 LCALL _I2CHW_1_bRead
    18C1: 20       POP   X
    18C2: 62 D0 00 MOV   REG[0xD0],0x0
    18C5: 54 00    MOV   [X+0],A
(0118) 	return(data);
    18C7: 52 00    MOV   A,[X+0]
    18C9: 38 FF    ADD   SP,0xFF
    18CB: 20       POP   X
    18CC: 7F       RET   
(0119) }
(0120) 
(0121) 
(0122) // Create pragmas to support proper argument and return value passing
(0123) #pragma fastcall16  Delay50uTimes
(0124) #pragma fastcall16  Delay50u
(0125) #pragma fastcall16  Delay10msTimes
(0126) //-------------------------------------------------
(0127) // Prototypes of the delay API.
(0128) //-------------------------------------------------
(0129) extern void Delay50u(void);
(0130) extern void Delay50uTimes(BYTE Multiple);
(0131) extern void Delay10msTimes(BYTE TenMstimes);
(0132) //=======================================
(0133) //= Delay N(ms)				=
(0134) //= N~bfBC			=
(0135) //=======================================
(0136) void MI2C_WaitMills(UINT16 delay)
(0137) {
_MI2C_WaitMills:
  delay                --> X-5
    18CD: 10       PUSH  X
    18CE: 4F       MOV   X,SP
(0138) 	if (delay) {
    18CF: 3D FB 00 CMP   [X-5],0x0
    18D2: B0 06    JNZ   0x18D9
    18D4: 3D FC 00 CMP   [X-4],0x0
    18D7: A0 2B    JZ    0x1903
(0139) 		while(--delay) {
    18D9: 80 08    JMP   0x18E2
(0140) 			Delay50uTimes(20);
    18DB: 10       PUSH  X
    18DC: 50 14    MOV   A,0x14
    18DE: 7C 19 20 LCALL _Delay50uTimes
    18E1: 20       POP   X
(0141) 		}
    18E2: 62 D0 00 MOV   REG[0xD0],0x0
    18E5: 52 FC    MOV   A,[X-4]
    18E7: 11 01    SUB   A,0x1
    18E9: 53 56    MOV   [__r1],A
    18EB: 52 FB    MOV   A,[X-5]
    18ED: 19 00    SBB   A,0x0
    18EF: 53 57    MOV   [__r0],A
    18F1: 51 56    MOV   A,[__r1]
    18F3: 54 FC    MOV   [X-4],A
    18F5: 51 57    MOV   A,[__r0]
    18F7: 54 FB    MOV   [X-5],A
    18F9: 3C 57 00 CMP   [__r0],0x0
    18FC: BF DE    JNZ   0x18DB
    18FE: 3C 56 00 CMP   [__r1],0x0
    1901: BF D9    JNZ   0x18DB
(0142) 	}
    1903: 20       POP   X
    1904: 7F       RET   
(0143) }
(0144) 
(0145) 
(0146) //---------------------------------------
(0147) //- MI2C Startup			-
(0148) //- MI2CX^[gAbv		-
(0149) //- Return Valueil)		-
(0150) //-	None				-
(0151) //-	ij			-
(0152) //---------------------------------------
(0153) //
(0154) void MI2C_Startup(void)
(0155) {
(0156) 	M8C_EnableGInt;
_MI2C_Startup:
    1905: 71 01    OR    F,0x1
(0157) 	I2CHW_1_Start();
    1907: 10       PUSH  X
    1908: 7C 03 BC LCALL _I2CHW_1_Start
(0158) 	I2CHW_1_EnableMstr();
    190B: 7C 03 CA LCALL _I2CHW_1_EnableMstr
(0159) 	I2CHW_1_EnableInt();
    190E: 7C 03 BF LCALL _I2CHW_1_EnableInt
(0160) }
(0161) 
FILE: ..\..\lib_modulio\psoc1_delay.asm (0001) ;;*****************************************************************************
                                        (0002) ;;*****************************************************************************
                                        (0003) ;;  FILENAME: delay.asm
                                        (0004) ;;
                                        (0005) ;;  DESCRIPTION: Delay functions implementation file
                                        (0006) ;;
                                        (0007) ;;-----------------------------------------------------------------------------
                                        (0008) ;;  Copyright (c) Cypress MicroSystems 2002-2006. All Rights Reserved.
                                        (0009) ;;*****************************************************************************
                                        (0010) ;;*****************************************************************************
                                        (0011) 
                                        (0012) ;-----------------------------------------------------------------------------
                                        (0013) ;  Include Files
                                        (0014) ;-----------------------------------------------------------------------------
                                        (0015) include "m8c.inc"
                                        (0016) include "memory.inc"
                                        (0017) 
                                        (0018) ;-----------------------------------------------------------------------------
                                        (0019) ;  Global Symbols
                                        (0020) ;-----------------------------------------------------------------------------
                                        (0021) export  Delay50uTimes
                                        (0022) export _Delay50uTimes
                                        (0023) 
                                        (0024) export  Delay50u
                                        (0025) export _Delay50u
                                        (0026) 
                                        (0027) export  Delay10msTimes
                                        (0028) export _Delay10msTimes
                                        (0029) 
                                        (0030) 
                                        (0031) area text(rom)
                                        (0032) .SECTION
                                        (0033) ;-----------------------------------------------------------------------------
                                        (0034) ;  FUNCTION NAME: DelaySeconds
                                        (0035) ;
                                        (0036) ;  DESCRIPTION:
                                        (0037) ;     Delay increments of 10mSeconds
                                        (0038) ;
                                        (0039) ;-----------------------------------------------------------------------------
                                        (0040) ;
                                        (0041) ;  ARGUMENTS:
                                        (0042) ;     A contains the delay multiplier
                                        (0043) ;
                                        (0044) ;  RETURNS:
                                        (0045) ;
                                        (0046) ;  SIDE EFFECTS:
                                        (0047) ;    The A and X registers may be modified by this or future implementations
                                        (0048) ;    of this function.  The same is true for all RAM page pointer registers in
                                        (0049) ;    the Large Memory Model.  When necessary, it is the calling function's
                                        (0050) ;    responsibility to perserve their values across calls to fastcall16 
                                        (0051) ;    functions.
                                        (0052) 
                                        (0053) 
                                        (0054)  Delay10msTimes:
                                        (0055) _Delay10msTimes:
                                        (0056)     RAM_PROLOGUE RAM_USE_CLASS_1
1913: 08       PUSH  A                  (0057) 	push A
                                        (0058) 
1914: 50 C8    MOV   A,0xC8             (0059) 	mov A, 200
                                        (0060) 	DELAY50US:
1916: 90 16    CALL  _Delay50u          (0061)     call  Delay50u
1918: 78       DEC   A                  (0062)     dec   A
1919: BF FC    JNZ   0x1916             (0063)     jnz   DELAY50US
                                        (0064) 
191B: 18       POP   A                  (0065) 	pop A
191C: 78       DEC   A                  (0066) 	dec   A
191D: BF F5    JNZ   _Delay10msTimes    (0067)     jnz   Delay10msTimes
                                        (0068) 
                                        (0069)     RAM_EPILOGUE RAM_USE_CLASS_1
191F: 7F       RET                      (0070)     ret
                                        (0071) .ENDSECTION
                                        (0072) 
                                        (0073) 
                                        (0074) 
                                        (0075) 
                                        (0076) .SECTION
                                        (0077) ;-----------------------------------------------------------------------------
                                        (0078) ;  FUNCTION NAME: Delay50uTimes
                                        (0079) ;
                                        (0080) ;  DESCRIPTION:
                                        (0081) ;     Delay increments of 50uSeconds
                                        (0082) ;
                                        (0083) ;-----------------------------------------------------------------------------
                                        (0084) ;
                                        (0085) ;  ARGUMENTS:
                                        (0086) ;     A contains the delay multiplier
                                        (0087) ;
                                        (0088) ;  RETURNS:
                                        (0089) ;
                                        (0090) ;  SIDE EFFECTS:
                                        (0091) ;    The A and X registers may be modified by this or future implementations
                                        (0092) ;    of this function.  The same is true for all RAM page pointer registers in
                                        (0093) ;    the Large Memory Model.  When necessary, it is the calling function's
                                        (0094) ;    responsibility to perserve their values across calls to fastcall16 
                                        (0095) ;    functions.
                                        (0096) ;
                                        (0097) ;
                                        (0098) 
                                        (0099)  Delay50uTimes:
                                        (0100) _Delay50uTimes:
                                        (0101)     RAM_PROLOGUE RAM_USE_CLASS_1
                                        (0102) 
1920: 90 0C    CALL  _Delay50u          (0103)     call  Delay50u
1922: 78       DEC   A                  (0104) 	dec A
1923: BF FC    JNZ   _Delay50uTimes     (0105)     jnz   Delay50uTimes
                                        (0106) 
                                        (0107) 	
                                        (0108)     RAM_EPILOGUE RAM_USE_CLASS_1
1925: 7F       RET                      (0109)     ret
                                        (0110) 
                                        (0111) .ENDSECTION
                                        (0112) 
                                        (0113) ;-----------------------------------------------------------------------------
                                        (0114) ;  FUNCTION NAME: Delay50u
                                        (0115) ;
                                        (0116) ;  DESCRIPTION:
                                        (0117) ;     Delay 50uSec for any clock frequency from 1.5MHz to 24MHz
                                        (0118) ;     Slower clock frequencies the delay will be;
                                        (0119) ;           1.5
                                        (0120) ;        -------------- * 50uSec
                                        (0121) ;        clock_freq(MHz)
                                        (0122) ;
                                        (0123) ;
                                        (0124) ;-----------------------------------------------------------------------------
                                        (0125) ;
                                        (0126) ;  ARGUMENTS: none
                                        (0127) ;
                                        (0128) ;  RETURNS: none
                                        (0129) ;
                                        (0130) ;  SIDE EFFECTS:
                                        (0131) ;    The A and X registers may be modified by this or future implementations
                                        (0132) ;    of this function.  The same is true for all RAM page pointer registers in
                                        (0133) ;    the Large Memory Model.  When necessary, it is the calling function's
                                        (0134) ;    responsibility to perserve their values across calls to fastcall16 
                                        (0135) ;    functions.
                                        (0136) ;
                                        (0137) ;  THEORY of OPERATION or PROCEDURE:
                                        (0138) ;
                                        (0139) .LITERAL
                                        (0140)  Delay50u_Table::
                                        (0141)      DB    08h,  19h,   3Ah,   7Ch,   01h,    01h,    01h,   01h
                                        (0142) ;         3MHz, 6MHz, 12MHz, 24MHz, 1.5MHz, 750kHz, 188kHz, 94kHz
                                        (0143) .ENDLITERAL
                                        (0144) .SECTION
                                        (0145) 
                                        (0146)   Delay50u:
                                        (0147)  _Delay50u:                      ; [11]  Call
                                        (0148)     RAM_PROLOGUE RAM_USE_CLASS_1
192E: 08       PUSH  A                  (0149)     push  A
192F: 71 10    OR    F,0x10             
                                        (0150)     M8C_SetBank1                       ; [4]
1931: 5D E0    MOV   A,REG[0xE0]        (0151)     mov   A, reg[OSC_CR0]              ; [6] Get delay value
1933: 70 EF    AND   F,0xEF             
                                        (0152)     M8C_SetBank0                       ; [4]
1935: 21 07    AND   A,0x7              (0153)     and   A,07h                        ; [4] Mask off only the clock bits
1937: 39 05    CMP   A,0x5              (0154)     cmp   A,05h
1939: D0 06    JNC   0x1940             (0155)     jnc   Delay50u_End
193B: FF E9    INDEX Delay50u_Table     (0156)     index Delay50u_Table               ; [13] Get delay value
                                        (0157) Delay50u_Loop:                         ;
193D: 78       DEC   A                  (0158)     dec   A                            ; [4]
193E: BF FE    JNZ   0x193D             (0159)     jnz   Delay50u_Loop                ; [5]
                                        (0160) Delay50u_End:
1940: 18       POP   A                  (0161)     pop   A
                                        (0162)     RAM_EPILOGUE RAM_USE_CLASS_1
1941: 7F       RET                      (0163)     ret
